Archive member included to satisfy reference by file (symbol)

d:/coocox/coide/workspace/bin/../lib/gcc/arm-none-eabi/6.3.1/thumb/v7e-m\libgcc.a(_arm_addsubdf3.o)
                              ..\obj\delay.o (__aeabi_ui2d)
d:/coocox/coide/workspace/bin/../lib/gcc/arm-none-eabi/6.3.1/thumb/v7e-m\libgcc.a(_arm_muldivdf3.o)
                              ..\obj\delay.o (__aeabi_dmul)
d:/coocox/coide/workspace/bin/../lib/gcc/arm-none-eabi/6.3.1/thumb/v7e-m\libgcc.a(_arm_fixunsdfsi.o)
                              ..\obj\delay.o (__aeabi_d2uiz)
d:/coocox/coide/workspace/bin/../lib/gcc/arm-none-eabi/6.3.1/../../../../arm-none-eabi/lib/thumb/v7e-m\libg.a(lib_a-atoi.o)
                              ..\obj\uarttask.o (atoi)
d:/coocox/coide/workspace/bin/../lib/gcc/arm-none-eabi/6.3.1/../../../../arm-none-eabi/lib/thumb/v7e-m\libg.a(lib_a-locale.o)
                              ..\obj\uarttask.o (__locale_ctype_ptr)
d:/coocox/coide/workspace/bin/../lib/gcc/arm-none-eabi/6.3.1/../../../../arm-none-eabi/lib/thumb/v7e-m\libg.a(lib_a-mbtowc_r.o)
                              d:/coocox/coide/workspace/bin/../lib/gcc/arm-none-eabi/6.3.1/../../../../arm-none-eabi/lib/thumb/v7e-m\libg.a(lib_a-locale.o) (__ascii_mbtowc)
d:/coocox/coide/workspace/bin/../lib/gcc/arm-none-eabi/6.3.1/../../../../arm-none-eabi/lib/thumb/v7e-m\libg.a(lib_a-memcpy.o)
                              ..\obj\startup_stm32f4xx.o (memcpy)
d:/coocox/coide/workspace/bin/../lib/gcc/arm-none-eabi/6.3.1/../../../../arm-none-eabi/lib/thumb/v7e-m\libg.a(lib_a-memset.o)
                              ..\obj\os_cpu_c.o (memset)
d:/coocox/coide/workspace/bin/../lib/gcc/arm-none-eabi/6.3.1/../../../../arm-none-eabi/lib/thumb/v7e-m\libg.a(lib_a-strcmp.o)
                              d:/coocox/coide/workspace/bin/../lib/gcc/arm-none-eabi/6.3.1/../../../../arm-none-eabi/lib/thumb/v7e-m\libg.a(lib_a-locale.o) (strcmp)
d:/coocox/coide/workspace/bin/../lib/gcc/arm-none-eabi/6.3.1/../../../../arm-none-eabi/lib/thumb/v7e-m\libg.a(lib_a-strcpy.o)
                              ..\obj\uarttask.o (strcpy)
d:/coocox/coide/workspace/bin/../lib/gcc/arm-none-eabi/6.3.1/../../../../arm-none-eabi/lib/thumb/v7e-m\libg.a(lib_a-strtol.o)
                              d:/coocox/coide/workspace/bin/../lib/gcc/arm-none-eabi/6.3.1/../../../../arm-none-eabi/lib/thumb/v7e-m\libg.a(lib_a-atoi.o) (_strtol_r)
d:/coocox/coide/workspace/bin/../lib/gcc/arm-none-eabi/6.3.1/../../../../arm-none-eabi/lib/thumb/v7e-m\libg.a(lib_a-wctomb_r.o)
                              d:/coocox/coide/workspace/bin/../lib/gcc/arm-none-eabi/6.3.1/../../../../arm-none-eabi/lib/thumb/v7e-m\libg.a(lib_a-locale.o) (__ascii_wctomb)
d:/coocox/coide/workspace/bin/../lib/gcc/arm-none-eabi/6.3.1/../../../../arm-none-eabi/lib/thumb/v7e-m\libg.a(lib_a-ctype_.o)
                              d:/coocox/coide/workspace/bin/../lib/gcc/arm-none-eabi/6.3.1/../../../../arm-none-eabi/lib/thumb/v7e-m\libg.a(lib_a-locale.o) (_ctype_)

Allocating common symbols
Common symbol       size              file

QHndl               0x4               ..\obj\main.o
G_CLK               0x4               ..\obj\delay.o
OSLockNesting       0x1               ..\obj\ucos_ii.o
OSTaskRegNextAvailID
                    0x1               ..\obj\ucos_ii.o
OSRunning           0x1               ..\obj\ucos_ii.o
OSIdleCtr           0x4               ..\obj\ucos_ii.o
D_S                 0x4               ..\obj\delay.o
OSPrioHighRdy       0x1               ..\obj\ucos_ii.o
DistribTaskStk      0x190             ..\obj\taskcreate.o
OSFlagTbl           0x50              ..\obj\ucos_ii.o
D_uS                0x4               ..\obj\delay.o
pqueue              0x3c              ..\obj\main.o
OSPrioCur           0x1               ..\obj\ucos_ii.o
DisplayTaskStk      0x190             ..\obj\taskcreate.o
OSTCBList           0x4               ..\obj\ucos_ii.o
OSMemTbl            0x78              ..\obj\ucos_ii.o
OSTickStepState     0x1               ..\obj\ucos_ii.o
string              0x64              ..\obj\uart.o
OSCtxSwCtr          0x4               ..\obj\ucos_ii.o
LedsTaskStk         0x190             ..\obj\taskcreate.o
UartReadTaskStk     0x190             ..\obj\taskcreate.o
OSTCBFreeList       0x4               ..\obj\ucos_ii.o
OS_CPU_ExceptStkBase
                    0x4               ..\obj\os_cpu_c.o
dqueue              0x168             ..\obj\main.o
OSTaskCtr           0x1               ..\obj\ucos_ii.o
OSMemFreeList       0x4               ..\obj\ucos_ii.o
OSQTbl              0x60              ..\obj\ucos_ii.o
OSTCBHighRdy        0x4               ..\obj\ucos_ii.o
OSQFreeList         0x4               ..\obj\ucos_ii.o
FlgHndl             0x8               ..\obj\main.o
OSRdyGrp            0x1               ..\obj\ucos_ii.o
InitTaskStk         0x190             ..\obj\main.o
OSRdyTbl            0x8               ..\obj\ucos_ii.o
D_mS                0x4               ..\obj\delay.o
MbHndl              0x10              ..\obj\main.o
OSEventFreeList     0x4               ..\obj\ucos_ii.o
BuzzerTaskStk       0x190             ..\obj\taskcreate.o
OS_CPU_ExceptStk    0x200             ..\obj\os_cpu_c.o
OSIntNesting        0x1               ..\obj\ucos_ii.o
OSTCBCur            0x4               ..\obj\ucos_ii.o
OSTime              0x4               ..\obj\ucos_ii.o
OSTaskIdleStk       0x200             ..\obj\ucos_ii.o
OSEventTbl          0x780             ..\obj\ucos_ii.o
OSTCBTbl            0x738             ..\obj\ucos_ii.o
SP_HighReady        0x4               ..\obj\os_cpu_c.o
OSFlagFreeList      0x4               ..\obj\ucos_ii.o
OSTCBPrioTbl        0x100             ..\obj\ucos_ii.o

Discarded input sections

 .text          0x00000000        0x0 ..\obj\delay.o
 .data          0x00000000        0x0 ..\obj\delay.o
 .bss           0x00000000        0x0 ..\obj\delay.o
 .text.DELAY_s  0x00000000       0x38 ..\obj\delay.o
 .text          0x00000000        0x0 ..\obj\os_time.o
 .data          0x00000000        0x0 ..\obj\os_time.o
 .bss           0x00000000        0x0 ..\obj\os_time.o
 .text.OSTimeDlyHMSM
                0x00000000       0x94 ..\obj\os_time.o
 .text.OSTimeDlyResume
                0x00000000       0x9c ..\obj\os_time.o
 .text.OSTimeGet
                0x00000000       0x18 ..\obj\os_time.o
 .text.OSTimeSet
                0x00000000       0x18 ..\obj\os_time.o
 .data          0x00000000        0x0 ..\obj\os_cpu_a.o
 .bss           0x00000000        0x0 ..\obj\os_cpu_a.o
 .text          0x00000000        0x0 ..\obj\keys.o
 .data          0x00000000        0x0 ..\obj\keys.o
 .bss           0x00000000        0x0 ..\obj\keys.o
 .text.KEYS_read
                0x00000000      0x1ac ..\obj\keys.o
 .text.KEYS_kolom
                0x00000000       0x4c ..\obj\keys.o
 .text          0x00000000        0x0 ..\obj\buzzer.o
 .data          0x00000000        0x0 ..\obj\buzzer.o
 .bss           0x00000000        0x0 ..\obj\buzzer.o
 .text.Buzzer_put
                0x00000000       0x44 ..\obj\buzzer.o
 .text          0x00000000        0x0 ..\obj\os_cpu_c.o
 .data          0x00000000        0x0 ..\obj\os_cpu_c.o
 .bss           0x00000000        0x0 ..\obj\os_cpu_c.o
 .text.OSTaskStatHook
                0x00000000        0x4 ..\obj\os_cpu_c.o
 .text.OSTaskSwHook
                0x00000000        0x4 ..\obj\os_cpu_c.o
 .text          0x00000000        0x0 ..\obj\stm32f4xx_usart.o
 .data          0x00000000        0x0 ..\obj\stm32f4xx_usart.o
 .bss           0x00000000        0x0 ..\obj\stm32f4xx_usart.o
 .text.USART_DeInit
                0x00000000       0xc8 ..\obj\stm32f4xx_usart.o
 .text.USART_StructInit
                0x00000000       0x18 ..\obj\stm32f4xx_usart.o
 .text.USART_ClockInit
                0x00000000       0x24 ..\obj\stm32f4xx_usart.o
 .text.USART_ClockStructInit
                0x00000000        0x8 ..\obj\stm32f4xx_usart.o
 .text.USART_SetPrescaler
                0x00000000       0x14 ..\obj\stm32f4xx_usart.o
 .text.USART_OverSampling8Cmd
                0x00000000       0x1c ..\obj\stm32f4xx_usart.o
 .text.USART_OneBitMethodCmd
                0x00000000       0x1c ..\obj\stm32f4xx_usart.o
 .text.USART_ReceiveData
                0x00000000        0x8 ..\obj\stm32f4xx_usart.o
 .text.USART_SetAddress
                0x00000000       0x18 ..\obj\stm32f4xx_usart.o
 .text.USART_ReceiverWakeUpCmd
                0x00000000       0x1c ..\obj\stm32f4xx_usart.o
 .text.USART_WakeUpConfig
                0x00000000       0x18 ..\obj\stm32f4xx_usart.o
 .text.USART_LINBreakDetectLengthConfig
                0x00000000       0x18 ..\obj\stm32f4xx_usart.o
 .text.USART_LINCmd
                0x00000000       0x1c ..\obj\stm32f4xx_usart.o
 .text.USART_SendBreak
                0x00000000        0xc ..\obj\stm32f4xx_usart.o
 .text.USART_HalfDuplexCmd
                0x00000000       0x1c ..\obj\stm32f4xx_usart.o
 .text.USART_SetGuardTime
                0x00000000       0x14 ..\obj\stm32f4xx_usart.o
 .text.USART_SmartCardCmd
                0x00000000       0x1c ..\obj\stm32f4xx_usart.o
 .text.USART_SmartCardNACKCmd
                0x00000000       0x1c ..\obj\stm32f4xx_usart.o
 .text.USART_IrDAConfig
                0x00000000       0x18 ..\obj\stm32f4xx_usart.o
 .text.USART_IrDACmd
                0x00000000       0x1c ..\obj\stm32f4xx_usart.o
 .text.USART_DMACmd
                0x00000000       0x14 ..\obj\stm32f4xx_usart.o
 .text.USART_ClearFlag
                0x00000000        0x8 ..\obj\stm32f4xx_usart.o
 .text          0x00000000        0x0 ..\obj\os_flag.o
 .data          0x00000000        0x0 ..\obj\os_flag.o
 .bss           0x00000000        0x0 ..\obj\os_flag.o
 .text.OSFlagAccept
                0x00000000       0xa8 ..\obj\os_flag.o
 .text.OSFlagDel
                0x00000000      0x13c ..\obj\os_flag.o
 .text.OSFlagNameGet
                0x00000000       0x54 ..\obj\os_flag.o
 .text.OSFlagNameSet
                0x00000000       0x38 ..\obj\os_flag.o
 .text.OSFlagPendGetFlagsRdy
                0x00000000       0x18 ..\obj\os_flag.o
 .text.OSFlagQuery
                0x00000000       0x28 ..\obj\os_flag.o
 .text          0x00000000        0x0 ..\obj\uarttask.o
 .data          0x00000000        0x0 ..\obj\uarttask.o
 .bss           0x00000000        0x0 ..\obj\uarttask.o
 .text.setQMember
                0x00000000       0x44 ..\obj\uarttask.o
 .text          0x00000000        0x0 ..\obj\uart.o
 .data          0x00000000        0x0 ..\obj\uart.o
 .text.UART_putchar
                0x00000000       0x20 ..\obj\uart.o
 .text.UART_INT_init
                0x00000000       0x1c ..\obj\uart.o
 .text.UART_printf
                0x00000000       0x74 ..\obj\uart.o
 .text.UART_putnum
                0x00000000      0x180 ..\obj\uart.o
 .text.UART_get
                0x00000000       0x20 ..\obj\uart.o
 .text          0x00000000        0x0 ..\obj\startup_stm32f4xx.o
 .data          0x00000000        0x0 ..\obj\startup_stm32f4xx.o
 .bss           0x00000000        0x0 ..\obj\startup_stm32f4xx.o
 .text          0x00000000        0x0 ..\obj\taskcreate.o
 .bss           0x00000000        0x0 ..\obj\taskcreate.o
 .text.displayStackData
                0x00000000       0x64 ..\obj\taskcreate.o
 .text          0x00000000        0x0 ..\obj\main.o
 .bss           0x00000000        0x0 ..\obj\main.o
 .text.DisplayOSData
                0x00000000       0x70 ..\obj\main.o
 .text.CreateHandles
                0x00000000       0x50 ..\obj\main.o
 .text          0x00000000        0x0 ..\obj\stm32f4xx_rcc.o
 .bss           0x00000000        0x0 ..\obj\stm32f4xx_rcc.o
 .text.RCC_DeInit
                0x00000000       0x34 ..\obj\stm32f4xx_rcc.o
 .text.RCC_HSEConfig
                0x00000000       0x10 ..\obj\stm32f4xx_rcc.o
 .text.RCC_WaitForHSEStartUp
                0x00000000       0x34 ..\obj\stm32f4xx_rcc.o
 .text.RCC_AdjustHSICalibrationValue
                0x00000000       0x14 ..\obj\stm32f4xx_rcc.o
 .text.RCC_HSICmd
                0x00000000        0xc ..\obj\stm32f4xx_rcc.o
 .text.RCC_LSEConfig
                0x00000000       0x20 ..\obj\stm32f4xx_rcc.o
 .text.RCC_LSICmd
                0x00000000        0xc ..\obj\stm32f4xx_rcc.o
 .text.RCC_PLLConfig
                0x00000000       0x24 ..\obj\stm32f4xx_rcc.o
 .text.RCC_PLLCmd
                0x00000000        0xc ..\obj\stm32f4xx_rcc.o
 .text.RCC_PLLI2SConfig
                0x00000000       0x14 ..\obj\stm32f4xx_rcc.o
 .text.RCC_PLLI2SCmd
                0x00000000        0xc ..\obj\stm32f4xx_rcc.o
 .text.RCC_ClockSecuritySystemCmd
                0x00000000        0xc ..\obj\stm32f4xx_rcc.o
 .text.RCC_MCO1Config
                0x00000000       0x14 ..\obj\stm32f4xx_rcc.o
 .text.RCC_MCO2Config
                0x00000000       0x14 ..\obj\stm32f4xx_rcc.o
 .text.RCC_SYSCLKConfig
                0x00000000       0x14 ..\obj\stm32f4xx_rcc.o
 .text.RCC_GetSYSCLKSource
                0x00000000       0x10 ..\obj\stm32f4xx_rcc.o
 .text.RCC_HCLKConfig
                0x00000000       0x14 ..\obj\stm32f4xx_rcc.o
 .text.RCC_PCLK1Config
                0x00000000       0x14 ..\obj\stm32f4xx_rcc.o
 .text.RCC_PCLK2Config
                0x00000000       0x14 ..\obj\stm32f4xx_rcc.o
 .text.RCC_RTCCLKConfig
                0x00000000       0x30 ..\obj\stm32f4xx_rcc.o
 .text.RCC_RTCCLKCmd
                0x00000000        0xc ..\obj\stm32f4xx_rcc.o
 .text.RCC_BackupResetCmd
                0x00000000        0xc ..\obj\stm32f4xx_rcc.o
 .text.RCC_I2SCLKConfig
                0x00000000        0xc ..\obj\stm32f4xx_rcc.o
 .text.RCC_AHB2PeriphClockCmd
                0x00000000       0x18 ..\obj\stm32f4xx_rcc.o
 .text.RCC_AHB3PeriphClockCmd
                0x00000000       0x18 ..\obj\stm32f4xx_rcc.o
 .text.RCC_APB2PeriphClockCmd
                0x00000000       0x18 ..\obj\stm32f4xx_rcc.o
 .text.RCC_AHB1PeriphResetCmd
                0x00000000       0x18 ..\obj\stm32f4xx_rcc.o
 .text.RCC_AHB2PeriphResetCmd
                0x00000000       0x18 ..\obj\stm32f4xx_rcc.o
 .text.RCC_AHB3PeriphResetCmd
                0x00000000       0x18 ..\obj\stm32f4xx_rcc.o
 .text.RCC_APB1PeriphResetCmd
                0x00000000       0x18 ..\obj\stm32f4xx_rcc.o
 .text.RCC_APB2PeriphResetCmd
                0x00000000       0x18 ..\obj\stm32f4xx_rcc.o
 .text.RCC_AHB1PeriphClockLPModeCmd
                0x00000000       0x18 ..\obj\stm32f4xx_rcc.o
 .text.RCC_AHB2PeriphClockLPModeCmd
                0x00000000       0x18 ..\obj\stm32f4xx_rcc.o
 .text.RCC_AHB3PeriphClockLPModeCmd
                0x00000000       0x18 ..\obj\stm32f4xx_rcc.o
 .text.RCC_APB1PeriphClockLPModeCmd
                0x00000000       0x18 ..\obj\stm32f4xx_rcc.o
 .text.RCC_APB2PeriphClockLPModeCmd
                0x00000000       0x18 ..\obj\stm32f4xx_rcc.o
 .text.RCC_ITConfig
                0x00000000       0x18 ..\obj\stm32f4xx_rcc.o
 .text.RCC_GetFlagStatus
                0x00000000       0x34 ..\obj\stm32f4xx_rcc.o
 .text.RCC_ClearFlag
                0x00000000       0x10 ..\obj\stm32f4xx_rcc.o
 .text.RCC_GetITStatus
                0x00000000       0x14 ..\obj\stm32f4xx_rcc.o
 .text.RCC_ClearITPendingBit
                0x00000000        0xc ..\obj\stm32f4xx_rcc.o
 .text          0x00000000        0x0 ..\obj\printf.o
 .bss           0x00000000        0x0 ..\obj\printf.o
 .text.PrintChar
                0x00000000        0x4 ..\obj\printf.o
 .text.PutChar  0x00000000        0x8 ..\obj\printf.o
 .text.PutString
                0x00000000       0x20 ..\obj\printf.o
 .text.PutUnsignedInt
                0x00000000       0xa4 ..\obj\printf.o
 .text.PutSignedInt
                0x00000000      0x164 ..\obj\printf.o
 .text.PutHexa  0x00000000       0xac ..\obj\printf.o
 .text.vsnprintf
                0x00000000      0x644 ..\obj\printf.o
 .text.snprintf
                0x00000000       0x1c ..\obj\printf.o
 .text.vsprintf
                0x00000000        0xc ..\obj\printf.o
 .text.vfprintf
                0x00000000       0x60 ..\obj\printf.o
 .text.vprintf  0x00000000       0x60 ..\obj\printf.o
 .text.fprintf  0x00000000       0x78 ..\obj\printf.o
 .text.printf   0x00000000       0x78 ..\obj\printf.o
 .text.sprintf  0x00000000       0x20 ..\obj\printf.o
 .text.puts     0x00000000       0x14 ..\obj\printf.o
 .text.fputc    0x00000000       0x1c ..\obj\printf.o
 .text.fputs    0x00000000       0x48 ..\obj\printf.o
 .text          0x00000000        0x0 ..\obj\os_sem.o
 .data          0x00000000        0x0 ..\obj\os_sem.o
 .bss           0x00000000        0x0 ..\obj\os_sem.o
 .text.OSSemAccept
                0x00000000       0x24 ..\obj\os_sem.o
 .text.OSSemCreate
                0x00000000       0x4c ..\obj\os_sem.o
 .text.OSSemDel
                0x00000000       0xb4 ..\obj\os_sem.o
 .text.OSSemPend
                0x00000000       0xb8 ..\obj\os_sem.o
 .text.OSSemPendAbort
                0x00000000       0x70 ..\obj\os_sem.o
 .text.OSSemPost
                0x00000000       0x50 ..\obj\os_sem.o
 .text.OSSemQuery
                0x00000000       0x6c ..\obj\os_sem.o
 .text.OSSemSet
                0x00000000       0x34 ..\obj\os_sem.o
 .rodata.str1.4
                0x00000000        0x2 ..\obj\os_sem.o
 .debug_info    0x00000000     0x150f ..\obj\os_sem.o
 .debug_abbrev  0x00000000      0x2e2 ..\obj\os_sem.o
 .debug_loc     0x00000000      0x810 ..\obj\os_sem.o
 .debug_aranges
                0x00000000       0x58 ..\obj\os_sem.o
 .debug_ranges  0x00000000       0x48 ..\obj\os_sem.o
 .debug_line    0x00000000      0x43a ..\obj\os_sem.o
 .debug_str     0x00000000      0xc47 ..\obj\os_sem.o
 .comment       0x00000000       0x80 ..\obj\os_sem.o
 .debug_frame   0x00000000      0x120 ..\obj\os_sem.o
 .ARM.attributes
                0x00000000       0x33 ..\obj\os_sem.o
 .text          0x00000000        0x0 ..\obj\distrib.o
 .data          0x00000000        0x0 ..\obj\distrib.o
 .bss           0x00000000        0x0 ..\obj\distrib.o
 .text.outCommand
                0x00000000       0x90 ..\obj\distrib.o
 .text.outQ     0x00000000       0xb8 ..\obj\distrib.o
 .rodata.str1.4
                0x00000000       0xab ..\obj\distrib.o
 .text          0x00000000        0x0 ..\obj\os_core.o
 .data          0x00000000        0x0 ..\obj\os_core.o
 .bss           0x00000000        0x0 ..\obj\os_core.o
 .text.OSEventNameGet
                0x00000000       0x50 ..\obj\os_core.o
 .text.OSEventNameSet
                0x00000000       0x34 ..\obj\os_core.o
 .text.OSEventPendMulti
                0x00000000      0x368 ..\obj\os_core.o
 .text.OSIntEnter
                0x00000000       0x20 ..\obj\os_core.o
 .text.OSSchedLock
                0x00000000       0x38 ..\obj\os_core.o
 .text.OSSchedUnlock
                0x00000000       0xb0 ..\obj\os_core.o
 .text.OS_EventTaskWaitMulti
                0x00000000       0x5c ..\obj\os_core.o
 .text.OS_MemCopy
                0x00000000       0xe0 ..\obj\os_core.o
 .text.OS_StrLen
                0x00000000       0x18 ..\obj\os_core.o
 .text.OS_TaskStatStkChk
                0x00000000       0x38 ..\obj\os_core.o
 .text          0x00000000        0x0 ..\obj\leds.o
 .data          0x00000000        0x0 ..\obj\leds.o
 .bss           0x00000000        0x0 ..\obj\leds.o
 .text          0x00000000        0x0 ..\obj\outputs.o
 .data          0x00000000        0x0 ..\obj\outputs.o
 .bss           0x00000000        0x0 ..\obj\outputs.o
 .text          0x00000000        0x0 ..\obj\os_mem.o
 .data          0x00000000        0x0 ..\obj\os_mem.o
 .bss           0x00000000        0x0 ..\obj\os_mem.o
 .text.OSMemCreate
                0x00000000       0x7c ..\obj\os_mem.o
 .text.OSMemGet
                0x00000000       0x34 ..\obj\os_mem.o
 .text.OSMemNameGet
                0x00000000       0x40 ..\obj\os_mem.o
 .text.OSMemNameSet
                0x00000000       0x28 ..\obj\os_mem.o
 .text.OSMemPut
                0x00000000       0x2c ..\obj\os_mem.o
 .text.OSMemQuery
                0x00000000       0x30 ..\obj\os_mem.o
 .text          0x00000000        0x0 ..\obj\stm32f4xx_gpio.o
 .data          0x00000000        0x0 ..\obj\stm32f4xx_gpio.o
 .bss           0x00000000        0x0 ..\obj\stm32f4xx_gpio.o
 .text.GPIO_DeInit
                0x00000000      0x118 ..\obj\stm32f4xx_gpio.o
 .text.GPIO_StructInit
                0x00000000        0xc ..\obj\stm32f4xx_gpio.o
 .text.GPIO_PinLockConfig
                0x00000000       0x24 ..\obj\stm32f4xx_gpio.o
 .text.GPIO_ReadInputDataBit
                0x00000000        0xc ..\obj\stm32f4xx_gpio.o
 .text.GPIO_ReadInputData
                0x00000000        0x8 ..\obj\stm32f4xx_gpio.o
 .text.GPIO_ReadOutputDataBit
                0x00000000        0xc ..\obj\stm32f4xx_gpio.o
 .text.GPIO_ReadOutputData
                0x00000000        0x8 ..\obj\stm32f4xx_gpio.o
 .text.GPIO_WriteBit
                0x00000000        0xc ..\obj\stm32f4xx_gpio.o
 .text.GPIO_Write
                0x00000000        0x4 ..\obj\stm32f4xx_gpio.o
 .text.GPIO_ToggleBits
                0x00000000        0x8 ..\obj\stm32f4xx_gpio.o
 .text          0x00000000        0x0 ..\obj\system_stm32f4xx.o
 .bss           0x00000000        0x0 ..\obj\system_stm32f4xx.o
 .text.SystemCoreClockUpdate
                0x00000000       0x68 ..\obj\system_stm32f4xx.o
 .text          0x00000000        0x0 ..\obj\syscalls.o
 .data          0x00000000        0x0 ..\obj\syscalls.o
 .bss           0x00000000        0x4 ..\obj\syscalls.o
 .text._sbrk    0x00000000       0x1c ..\obj\syscalls.o
 .text.link     0x00000000        0x8 ..\obj\syscalls.o
 .text._close   0x00000000        0x8 ..\obj\syscalls.o
 .text._fstat   0x00000000        0xc ..\obj\syscalls.o
 .text._isatty  0x00000000        0x4 ..\obj\syscalls.o
 .text._lseek   0x00000000        0x4 ..\obj\syscalls.o
 .text._read    0x00000000        0x4 ..\obj\syscalls.o
 .text._write   0x00000000        0x4 ..\obj\syscalls.o
 .text.abort    0x00000000        0x4 ..\obj\syscalls.o
 .debug_info    0x00000000      0xc95 ..\obj\syscalls.o
 .debug_abbrev  0x00000000      0x22b ..\obj\syscalls.o
 .debug_loc     0x00000000      0x11f ..\obj\syscalls.o
 .debug_aranges
                0x00000000       0x60 ..\obj\syscalls.o
 .debug_ranges  0x00000000       0x50 ..\obj\syscalls.o
 .debug_line    0x00000000      0x242 ..\obj\syscalls.o
 .debug_str     0x00000000      0x735 ..\obj\syscalls.o
 .comment       0x00000000       0x80 ..\obj\syscalls.o
 .debug_frame   0x00000000       0xa0 ..\obj\syscalls.o
 .ARM.attributes
                0x00000000       0x33 ..\obj\syscalls.o
 .text          0x00000000        0x0 ..\obj\os_q.o
 .data          0x00000000        0x0 ..\obj\os_q.o
 .bss           0x00000000        0x0 ..\obj\os_q.o
 .text.OSQDel   0x00000000       0xcc ..\obj\os_q.o
 .text.OSQPend  0x00000000       0xf8 ..\obj\os_q.o
 .text.OSQPendAbort
                0x00000000       0x78 ..\obj\os_q.o
 .text.OSQPostFront
                0x00000000       0x68 ..\obj\os_q.o
 .text.OSQPostOpt
                0x00000000       0xa4 ..\obj\os_q.o
 .text          0x00000000        0x0 ..\obj\os_task.o
 .data          0x00000000        0x0 ..\obj\os_task.o
 .bss           0x00000000        0x0 ..\obj\os_task.o
 .text.OSTaskChangePrio
                0x00000000      0x194 ..\obj\os_task.o
 .text.OSTaskDelReq
                0x00000000       0x60 ..\obj\os_task.o
 .text.OSTaskNameGet
                0x00000000       0x70 ..\obj\os_task.o
 .text.OSTaskResume
                0x00000000       0x9c ..\obj\os_task.o
 .text.OSTaskSuspend
                0x00000000       0x9c ..\obj\os_task.o
 .text.OSTaskQuery
                0x00000000       0x5c ..\obj\os_task.o
 .text.OSTaskRegGet
                0x00000000       0x34 ..\obj\os_task.o
 .text.OSTaskRegGetID
                0x00000000       0x30 ..\obj\os_task.o
 .text.OSTaskRegSet
                0x00000000       0x34 ..\obj\os_task.o
 .text.OS_TaskStkClr
                0x00000000       0x14 ..\obj\os_task.o
 .text          0x00000000        0x0 ..\obj\lcd.o
 .data          0x00000000        0x0 ..\obj\lcd.o
 .text.LCD_writebyte
                0x00000000      0x110 ..\obj\lcd.o
 .text.ClearBits
                0x00000000       0x2c ..\obj\lcd.o
 .text.LCD_XY   0x00000000       0x44 ..\obj\lcd.o
 .text.LCD_putchar
                0x00000000       0x30 ..\obj\lcd.o
 .text.LCD_putint
                0x00000000      0x190 ..\obj\lcd.o
 .text.LCD_writecontrol
                0x00000000       0x1c ..\obj\lcd.o
 .text.delay_LCD
                0x00000000       0x18 ..\obj\lcd.o
 .text.busyflag
                0x00000000       0x28 ..\obj\lcd.o
 .rodata        0x00000000        0xa ..\obj\lcd.o
 .text          0x00000000        0x0 ..\obj\misc.o
 .data          0x00000000        0x0 ..\obj\misc.o
 .bss           0x00000000        0x0 ..\obj\misc.o
 .text.NVIC_PriorityGroupConfig
                0x00000000       0x14 ..\obj\misc.o
 .text.NVIC_Init
                0x00000000       0x68 ..\obj\misc.o
 .text.NVIC_SetVectorTable
                0x00000000       0x14 ..\obj\misc.o
 .text.NVIC_SystemLPConfig
                0x00000000       0x1c ..\obj\misc.o
 .text.SysTick_CLKSourceConfig
                0x00000000       0x18 ..\obj\misc.o
 .debug_info    0x00000000      0x54d ..\obj\misc.o
 .debug_abbrev  0x00000000      0x17f ..\obj\misc.o
 .debug_loc     0x00000000      0x152 ..\obj\misc.o
 .debug_aranges
                0x00000000       0x40 ..\obj\misc.o
 .debug_ranges  0x00000000       0x30 ..\obj\misc.o
 .debug_line    0x00000000      0x274 ..\obj\misc.o
 .debug_str     0x00000000      0x3e8 ..\obj\misc.o
 .comment       0x00000000       0x80 ..\obj\misc.o
 .debug_frame   0x00000000       0x70 ..\obj\misc.o
 .ARM.attributes
                0x00000000       0x33 ..\obj\misc.o
 .text          0x00000000        0x0 ..\obj\ucos_ii.o
 .data          0x00000000        0x0 ..\obj\ucos_ii.o
 .bss           0x00000000        0x0 ..\obj\ucos_ii.o
 .text          0x00000000        0x0 ..\obj\os_mbox.o
 .data          0x00000000        0x0 ..\obj\os_mbox.o
 .bss           0x00000000        0x0 ..\obj\os_mbox.o
 .text.OSMboxAccept
                0x00000000       0x24 ..\obj\os_mbox.o
 .text.OSMboxDel
                0x00000000       0xb4 ..\obj\os_mbox.o
 .text.OSMboxPendAbort
                0x00000000       0x78 ..\obj\os_mbox.o
 .text.OSMboxPostOpt
                0x00000000       0x70 ..\obj\os_mbox.o
 .text.OSMboxQuery
                0x00000000       0x6c ..\obj\os_mbox.o
 .data          0x00000000        0x0 d:/coocox/coide/workspace/bin/../lib/gcc/arm-none-eabi/6.3.1/thumb/v7e-m\libgcc.a(_arm_addsubdf3.o)
 .bss           0x00000000        0x0 d:/coocox/coide/workspace/bin/../lib/gcc/arm-none-eabi/6.3.1/thumb/v7e-m\libgcc.a(_arm_addsubdf3.o)
 .data          0x00000000        0x0 d:/coocox/coide/workspace/bin/../lib/gcc/arm-none-eabi/6.3.1/thumb/v7e-m\libgcc.a(_arm_muldivdf3.o)
 .bss           0x00000000        0x0 d:/coocox/coide/workspace/bin/../lib/gcc/arm-none-eabi/6.3.1/thumb/v7e-m\libgcc.a(_arm_muldivdf3.o)
 .data          0x00000000        0x0 d:/coocox/coide/workspace/bin/../lib/gcc/arm-none-eabi/6.3.1/thumb/v7e-m\libgcc.a(_arm_fixunsdfsi.o)
 .bss           0x00000000        0x0 d:/coocox/coide/workspace/bin/../lib/gcc/arm-none-eabi/6.3.1/thumb/v7e-m\libgcc.a(_arm_fixunsdfsi.o)
 .text          0x00000000        0x0 d:/coocox/coide/workspace/bin/../lib/gcc/arm-none-eabi/6.3.1/../../../../arm-none-eabi/lib/thumb/v7e-m\libg.a(lib_a-atoi.o)
 .data          0x00000000        0x0 d:/coocox/coide/workspace/bin/../lib/gcc/arm-none-eabi/6.3.1/../../../../arm-none-eabi/lib/thumb/v7e-m\libg.a(lib_a-atoi.o)
 .bss           0x00000000        0x0 d:/coocox/coide/workspace/bin/../lib/gcc/arm-none-eabi/6.3.1/../../../../arm-none-eabi/lib/thumb/v7e-m\libg.a(lib_a-atoi.o)
 .text._atoi_r  0x00000000        0x8 d:/coocox/coide/workspace/bin/../lib/gcc/arm-none-eabi/6.3.1/../../../../arm-none-eabi/lib/thumb/v7e-m\libg.a(lib_a-atoi.o)
 .text          0x00000000        0x0 d:/coocox/coide/workspace/bin/../lib/gcc/arm-none-eabi/6.3.1/../../../../arm-none-eabi/lib/thumb/v7e-m\libg.a(lib_a-locale.o)
 .data          0x00000000        0x0 d:/coocox/coide/workspace/bin/../lib/gcc/arm-none-eabi/6.3.1/../../../../arm-none-eabi/lib/thumb/v7e-m\libg.a(lib_a-locale.o)
 .bss           0x00000000        0x0 d:/coocox/coide/workspace/bin/../lib/gcc/arm-none-eabi/6.3.1/../../../../arm-none-eabi/lib/thumb/v7e-m\libg.a(lib_a-locale.o)
 .text._setlocale_r
                0x00000000       0x40 d:/coocox/coide/workspace/bin/../lib/gcc/arm-none-eabi/6.3.1/../../../../arm-none-eabi/lib/thumb/v7e-m\libg.a(lib_a-locale.o)
 .text.__locale_mb_cur_max
                0x00000000       0x1c d:/coocox/coide/workspace/bin/../lib/gcc/arm-none-eabi/6.3.1/../../../../arm-none-eabi/lib/thumb/v7e-m\libg.a(lib_a-locale.o)
 .text.setlocale
                0x00000000       0x10 d:/coocox/coide/workspace/bin/../lib/gcc/arm-none-eabi/6.3.1/../../../../arm-none-eabi/lib/thumb/v7e-m\libg.a(lib_a-locale.o)
 .bss._PathLocale
                0x00000000        0x4 d:/coocox/coide/workspace/bin/../lib/gcc/arm-none-eabi/6.3.1/../../../../arm-none-eabi/lib/thumb/v7e-m\libg.a(lib_a-locale.o)
 .text          0x00000000        0x0 d:/coocox/coide/workspace/bin/../lib/gcc/arm-none-eabi/6.3.1/../../../../arm-none-eabi/lib/thumb/v7e-m\libg.a(lib_a-mbtowc_r.o)
 .data          0x00000000        0x0 d:/coocox/coide/workspace/bin/../lib/gcc/arm-none-eabi/6.3.1/../../../../arm-none-eabi/lib/thumb/v7e-m\libg.a(lib_a-mbtowc_r.o)
 .bss           0x00000000        0x0 d:/coocox/coide/workspace/bin/../lib/gcc/arm-none-eabi/6.3.1/../../../../arm-none-eabi/lib/thumb/v7e-m\libg.a(lib_a-mbtowc_r.o)
 .text._mbtowc_r
                0x00000000       0x24 d:/coocox/coide/workspace/bin/../lib/gcc/arm-none-eabi/6.3.1/../../../../arm-none-eabi/lib/thumb/v7e-m\libg.a(lib_a-mbtowc_r.o)
 .data          0x00000000        0x0 d:/coocox/coide/workspace/bin/../lib/gcc/arm-none-eabi/6.3.1/../../../../arm-none-eabi/lib/thumb/v7e-m\libg.a(lib_a-memcpy.o)
 .bss           0x00000000        0x0 d:/coocox/coide/workspace/bin/../lib/gcc/arm-none-eabi/6.3.1/../../../../arm-none-eabi/lib/thumb/v7e-m\libg.a(lib_a-memcpy.o)
 .text          0x00000000        0x0 d:/coocox/coide/workspace/bin/../lib/gcc/arm-none-eabi/6.3.1/../../../../arm-none-eabi/lib/thumb/v7e-m\libg.a(lib_a-memset.o)
 .data          0x00000000        0x0 d:/coocox/coide/workspace/bin/../lib/gcc/arm-none-eabi/6.3.1/../../../../arm-none-eabi/lib/thumb/v7e-m\libg.a(lib_a-memset.o)
 .bss           0x00000000        0x0 d:/coocox/coide/workspace/bin/../lib/gcc/arm-none-eabi/6.3.1/../../../../arm-none-eabi/lib/thumb/v7e-m\libg.a(lib_a-memset.o)
 .text          0x00000000      0x2dc d:/coocox/coide/workspace/bin/../lib/gcc/arm-none-eabi/6.3.1/../../../../arm-none-eabi/lib/thumb/v7e-m\libg.a(lib_a-strcmp.o)
 .data          0x00000000        0x0 d:/coocox/coide/workspace/bin/../lib/gcc/arm-none-eabi/6.3.1/../../../../arm-none-eabi/lib/thumb/v7e-m\libg.a(lib_a-strcmp.o)
 .bss           0x00000000        0x0 d:/coocox/coide/workspace/bin/../lib/gcc/arm-none-eabi/6.3.1/../../../../arm-none-eabi/lib/thumb/v7e-m\libg.a(lib_a-strcmp.o)
 .debug_frame   0x00000000       0x68 d:/coocox/coide/workspace/bin/../lib/gcc/arm-none-eabi/6.3.1/../../../../arm-none-eabi/lib/thumb/v7e-m\libg.a(lib_a-strcmp.o)
 .ARM.attributes
                0x00000000       0x1c d:/coocox/coide/workspace/bin/../lib/gcc/arm-none-eabi/6.3.1/../../../../arm-none-eabi/lib/thumb/v7e-m\libg.a(lib_a-strcmp.o)
 .text          0x00000000        0x0 d:/coocox/coide/workspace/bin/../lib/gcc/arm-none-eabi/6.3.1/../../../../arm-none-eabi/lib/thumb/v7e-m\libg.a(lib_a-strcpy.o)
 .data          0x00000000        0x0 d:/coocox/coide/workspace/bin/../lib/gcc/arm-none-eabi/6.3.1/../../../../arm-none-eabi/lib/thumb/v7e-m\libg.a(lib_a-strcpy.o)
 .bss           0x00000000        0x0 d:/coocox/coide/workspace/bin/../lib/gcc/arm-none-eabi/6.3.1/../../../../arm-none-eabi/lib/thumb/v7e-m\libg.a(lib_a-strcpy.o)
 .text          0x00000000        0x0 d:/coocox/coide/workspace/bin/../lib/gcc/arm-none-eabi/6.3.1/../../../../arm-none-eabi/lib/thumb/v7e-m\libg.a(lib_a-strtol.o)
 .data          0x00000000        0x0 d:/coocox/coide/workspace/bin/../lib/gcc/arm-none-eabi/6.3.1/../../../../arm-none-eabi/lib/thumb/v7e-m\libg.a(lib_a-strtol.o)
 .bss           0x00000000        0x0 d:/coocox/coide/workspace/bin/../lib/gcc/arm-none-eabi/6.3.1/../../../../arm-none-eabi/lib/thumb/v7e-m\libg.a(lib_a-strtol.o)
 .text._strtol_r
                0x00000000       0x24 d:/coocox/coide/workspace/bin/../lib/gcc/arm-none-eabi/6.3.1/../../../../arm-none-eabi/lib/thumb/v7e-m\libg.a(lib_a-strtol.o)
 .text.strtol_l
                0x00000000       0x20 d:/coocox/coide/workspace/bin/../lib/gcc/arm-none-eabi/6.3.1/../../../../arm-none-eabi/lib/thumb/v7e-m\libg.a(lib_a-strtol.o)
 .text          0x00000000        0x0 d:/coocox/coide/workspace/bin/../lib/gcc/arm-none-eabi/6.3.1/../../../../arm-none-eabi/lib/thumb/v7e-m\libg.a(lib_a-wctomb_r.o)
 .data          0x00000000        0x0 d:/coocox/coide/workspace/bin/../lib/gcc/arm-none-eabi/6.3.1/../../../../arm-none-eabi/lib/thumb/v7e-m\libg.a(lib_a-wctomb_r.o)
 .bss           0x00000000        0x0 d:/coocox/coide/workspace/bin/../lib/gcc/arm-none-eabi/6.3.1/../../../../arm-none-eabi/lib/thumb/v7e-m\libg.a(lib_a-wctomb_r.o)
 .text._wctomb_r
                0x00000000       0x24 d:/coocox/coide/workspace/bin/../lib/gcc/arm-none-eabi/6.3.1/../../../../arm-none-eabi/lib/thumb/v7e-m\libg.a(lib_a-wctomb_r.o)
 .text          0x00000000        0x0 d:/coocox/coide/workspace/bin/../lib/gcc/arm-none-eabi/6.3.1/../../../../arm-none-eabi/lib/thumb/v7e-m\libg.a(lib_a-ctype_.o)
 .data          0x00000000        0x0 d:/coocox/coide/workspace/bin/../lib/gcc/arm-none-eabi/6.3.1/../../../../arm-none-eabi/lib/thumb/v7e-m\libg.a(lib_a-ctype_.o)
 .bss           0x00000000        0x0 d:/coocox/coide/workspace/bin/../lib/gcc/arm-none-eabi/6.3.1/../../../../arm-none-eabi/lib/thumb/v7e-m\libg.a(lib_a-ctype_.o)

Memory Configuration

Name             Origin             Length             Attributes
rom              0x08000000         0x00100000         xr
ram              0x20000000         0x00020000         xrw
ram1             0x10000000         0x00010000         xrw
*default*        0x00000000         0xffffffff

Linker script and memory map

                0x20020000                _eram = 0x20020000

.text           0x08000000     0x4539
 *(.isr_vector)
 .isr_vector    0x08000000      0x188 ..\obj\startup_stm32f4xx.o
                0x08000000                g_pfnVectors
 *(.text*)
 .text.DELAY_init
                0x08000188       0xa4 ..\obj\delay.o
                0x08000188                DELAY_init
 .text.DELAY_us
                0x0800022c       0x38 ..\obj\delay.o
                0x0800022c                DELAY_us
 .text.DELAY_ms
                0x08000264       0x38 ..\obj\delay.o
                0x08000264                DELAY_ms
 .text.OSTimeDly
                0x0800029c       0x60 ..\obj\os_time.o
                0x0800029c                OSTimeDly
 .text          0x080002fc       0x54 ..\obj\os_cpu_a.o
                0x080002fc                OS_CPU_SR_Save
                0x08000300                OS_CPU_SR_Restore
                0x08000304                OSStartHighRdy
                0x0800032c                OSCtxSw
                0x08000336                OSIntCtxSw
 .text.KEYS_init
                0x08000350       0x4c ..\obj\keys.o
                0x08000350                KEYS_init
 .text.BUZZER_init
                0x0800039c       0x2c ..\obj\buzzer.o
                0x0800039c                BUZZER_init
 .text.BUZZER_set
                0x080003c8       0x38 ..\obj\buzzer.o
                0x080003c8                BUZZER_set
 .text.BUZZER_put
                0x08000400       0x64 ..\obj\buzzer.o
                0x08000400                BUZZER_put
 .text.OSInitHookBegin
                0x08000464       0x28 ..\obj\os_cpu_c.o
                0x08000464                OSInitHookBegin
 .text.OSInitHookEnd
                0x0800048c        0x4 ..\obj\os_cpu_c.o
                0x0800048c                OSInitHookEnd
 .text.OSTaskCreateHook
                0x08000490        0x4 ..\obj\os_cpu_c.o
                0x08000490                OSTaskCreateHook
 .text.OSTaskDelHook
                0x08000494        0x4 ..\obj\os_cpu_c.o
                0x08000494                OSTaskDelHook
 .text.OSTaskIdleHook
                0x08000498        0x4 ..\obj\os_cpu_c.o
                0x08000498                OSTaskIdleHook
 .text.OSTaskReturnHook
                0x0800049c        0x4 ..\obj\os_cpu_c.o
                0x0800049c                OSTaskReturnHook
 .text.OSTaskStkInit
                0x080004a0       0x8c ..\obj\os_cpu_c.o
                0x080004a0                OSTaskStkInit
 .text.OSTCBInitHook
                0x0800052c        0x4 ..\obj\os_cpu_c.o
                0x0800052c                OSTCBInitHook
 .text.OSTimeTickHook
                0x08000530        0x4 ..\obj\os_cpu_c.o
                0x08000530                OSTimeTickHook
 .text.PendSV_Handler
                0x08000534       0x50 ..\obj\os_cpu_c.o
                0x08000534                PendSV_Handler
 .text.SysTick_Handler
                0x08000584       0x30 ..\obj\os_cpu_c.o
                0x08000584                SysTick_Handler
 .text.OS_CPU_SysTickInit
                0x080005b4       0x30 ..\obj\os_cpu_c.o
                0x080005b4                OS_CPU_SysTickInit
 .text.USART_Init
                0x080005e4       0xc4 ..\obj\stm32f4xx_usart.o
                0x080005e4                USART_Init
 .text.USART_Cmd
                0x080006a8       0x1c ..\obj\stm32f4xx_usart.o
                0x080006a8                USART_Cmd
 .text.USART_SendData
                0x080006c4        0x8 ..\obj\stm32f4xx_usart.o
                0x080006c4                USART_SendData
 .text.USART_ITConfig
                0x080006cc       0x38 ..\obj\stm32f4xx_usart.o
                0x080006cc                USART_ITConfig
 .text.USART_GetFlagStatus
                0x08000704        0xc ..\obj\stm32f4xx_usart.o
                0x08000704                USART_GetFlagStatus
 .text.USART_GetITStatus
                0x08000710       0x48 ..\obj\stm32f4xx_usart.o
                0x08000710                USART_GetITStatus
 .text.USART_ClearITPendingBit
                0x08000758       0x10 ..\obj\stm32f4xx_usart.o
                0x08000758                USART_ClearITPendingBit
 .text.OSFlagCreate
                0x08000768       0x54 ..\obj\os_flag.o
                0x08000768                OSFlagCreate
 .text.OSFlagPend
                0x080007bc      0x280 ..\obj\os_flag.o
                0x080007bc                OSFlagPend
 .text.OSFlagPost
                0x08000a3c      0x270 ..\obj\os_flag.o
                0x08000a3c                OSFlagPost
 .text.OS_FlagInit
                0x08000cac       0x58 ..\obj\os_flag.o
                0x08000cac                OS_FlagInit
 .text.OS_FlagUnlink
                0x08000d04       0x20 ..\obj\os_flag.o
                0x08000d04                OS_FlagUnlink
 .text.UartReadTask
                0x08000d24      0x148 ..\obj\uarttask.o
                0x08000d24                UartReadTask
 .text.UART_init
                0x08000e6c       0x88 ..\obj\uart.o
                0x08000e6c                UART_init
 .text.UART_puts
                0x08000ef4       0x40 ..\obj\uart.o
                0x08000ef4                UART_puts
 .text.USART2_IRQHandler
                0x08000f34       0x90 ..\obj\uart.o
                0x08000f34                USART2_IRQHandler
 .text.UART_putint
                0x08000fc4      0x1a4 ..\obj\uart.o
                0x08000fc4                UART_putint
 .text.UART_gets
                0x08001168       0x64 ..\obj\uart.o
                0x08001168                UART_gets
 .text.Default_Reset_Handler
                0x080011cc       0x58 ..\obj\startup_stm32f4xx.o
                0x080011cc                Default_Reset_Handler
                0x080011cc                Reset_Handler
 .text.Default_Handler
                0x08001224       0x14 ..\obj\startup_stm32f4xx.o
                0x08001224                RTC_Alarm_IRQHandler
                0x08001224                HASH_RNG_IRQHandler
                0x08001224                EXTI2_IRQHandler
                0x08001224                TIM8_CC_IRQHandler
                0x08001224                DebugMon_Handler
                0x08001224                TIM1_CC_IRQHandler
                0x08001224                DMA2_Stream5_IRQHandler
                0x08001224                HardFault_Handler
                0x08001224                DMA1_Stream5_IRQHandler
                0x08001224                PVD_IRQHandler
                0x08001224                SDIO_IRQHandler
                0x08001224                TAMP_STAMP_IRQHandler
                0x08001224                NMI_Handler
                0x08001224                CAN2_RX1_IRQHandler
                0x08001224                EXTI3_IRQHandler
                0x08001224                TIM8_TRG_COM_TIM14_IRQHandler
                0x08001224                TIM1_UP_TIM10_IRQHandler
                0x08001224                TIM8_UP_TIM13_IRQHandler
                0x08001224                I2C3_ER_IRQHandler
                0x08001224                EXTI0_IRQHandler
                0x08001224                I2C2_EV_IRQHandler
                0x08001224                DMA1_Stream2_IRQHandler
                0x08001224                CAN1_RX0_IRQHandler
                0x08001224                FPU_IRQHandler
                0x08001224                OTG_HS_WKUP_IRQHandler
                0x08001224                UsageFault_Handler
                0x08001224                CAN2_SCE_IRQHandler
                0x08001224                DMA2_Stream2_IRQHandler
                0x08001224                SPI1_IRQHandler
                0x08001224                TIM6_DAC_IRQHandler
                0x08001224                TIM1_BRK_TIM9_IRQHandler
                0x08001224                DCMI_IRQHandler
                0x08001224                CAN2_RX0_IRQHandler
                0x08001224                DMA2_Stream3_IRQHandler
                0x08001224                USART6_IRQHandler
                0x08001224                USART3_IRQHandler
                0x08001224                CRYP_IRQHandler
                0x08001224                CAN1_RX1_IRQHandler
                0x08001224                UART5_IRQHandler
                0x08001224                DMA2_Stream0_IRQHandler
                0x08001224                TIM4_IRQHandler
                0x08001224                I2C1_EV_IRQHandler
                0x08001224                DMA1_Stream6_IRQHandler
                0x08001224                DMA1_Stream1_IRQHandler
                0x08001224                UART4_IRQHandler
                0x08001224                TIM3_IRQHandler
                0x08001224                RCC_IRQHandler
                0x08001224                TIM8_BRK_TIM12_IRQHandler
                0x08001224                EXTI15_10_IRQHandler
                0x08001224                ADC_IRQHandler
                0x08001224                DMA1_Stream7_IRQHandler
                0x08001224                TIM7_IRQHandler
                0x08001224                CAN2_TX_IRQHandler
                0x08001224                TIM5_IRQHandler
                0x08001224                DMA2_Stream7_IRQHandler
                0x08001224                I2C3_EV_IRQHandler
                0x08001224                EXTI9_5_IRQHandler
                0x08001224                RTC_WKUP_IRQHandler
                0x08001224                ETH_WKUP_IRQHandler
                0x08001224                SPI2_IRQHandler
                0x08001224                OTG_HS_EP1_IN_IRQHandler
                0x08001224                MemManage_Handler
                0x08001224                DMA1_Stream0_IRQHandler
                0x08001224                CAN1_TX_IRQHandler
                0x08001224                SVC_Handler
                0x08001224                EXTI4_IRQHandler
                0x08001224                FSMC_IRQHandler
                0x08001224                ETH_IRQHandler
                0x08001224                OTG_HS_EP1_OUT_IRQHandler
                0x08001224                WWDG_IRQHandler
                0x08001224                TIM2_IRQHandler
                0x08001224                OTG_FS_WKUP_IRQHandler
                0x08001224                TIM1_TRG_COM_TIM11_IRQHandler
                0x08001224                OTG_HS_IRQHandler
                0x08001224                EXTI1_IRQHandler
                0x08001224                I2C2_ER_IRQHandler
                0x08001224                DMA2_Stream1_IRQHandler
                0x08001224                CAN1_SCE_IRQHandler
                0x08001224                FLASH_IRQHandler
                0x08001224                DMA2_Stream4_IRQHandler
                0x08001224                BusFault_Handler
                0x08001224                USART1_IRQHandler
                0x08001224                OTG_FS_IRQHandler
                0x08001224                SPI3_IRQHandler
                0x08001224                DMA1_Stream4_IRQHandler
                0x08001224                I2C1_ER_IRQHandler
                0x08001224                DMA2_Stream6_IRQHandler
                0x08001224                DMA1_Stream3_IRQHandler
 .text.CreateTasks
                0x08001238       0x44 ..\obj\taskcreate.o
                0x08001238                CreateTasks
 .text.displayAllStackData
                0x0800127c       0x8c ..\obj\taskcreate.o
                0x0800127c                displayAllStackData
 .text.InitTask
                0x08001308       0xec ..\obj\main.o
                0x08001308                InitTask
 .text.startup.main
                0x080013f4       0x6c ..\obj\main.o
                0x080013f4                main
 .text.RCC_GetClocksFreq
                0x08001460       0x8c ..\obj\stm32f4xx_rcc.o
                0x08001460                RCC_GetClocksFreq
 .text.RCC_AHB1PeriphClockCmd
                0x080014ec       0x18 ..\obj\stm32f4xx_rcc.o
                0x080014ec                RCC_AHB1PeriphClockCmd
 .text.RCC_APB1PeriphClockCmd
                0x08001504       0x18 ..\obj\stm32f4xx_rcc.o
                0x08001504                RCC_APB1PeriphClockCmd
 .text.DistribTask
                0x0800151c       0x98 ..\obj\distrib.o
                0x0800151c                DistribTask
 .text.OS_TaskIdle
                0x080015b4       0x1c ..\obj\os_core.o
                0x080015b4                OS_TaskIdle
 .text.OSInit   0x080015d0      0x168 ..\obj\os_core.o
                0x080015d0                OSInit
 .text.OSIntExit
                0x08001738       0xa0 ..\obj\os_core.o
                0x08001738                OSIntExit
 .text.OSStart  0x080017d8       0x60 ..\obj\os_core.o
                0x080017d8                OSStart
 .text.OSTimeTick
                0x08001838       0xb0 ..\obj\os_core.o
                0x08001838                OSTimeTick
 .text.OSVersion
                0x080018e8        0x8 ..\obj\os_core.o
                0x080018e8                OSVersion
 .text.OS_Dummy
                0x080018f0        0x4 ..\obj\os_core.o
                0x080018f0                OS_Dummy
 .text.OS_EventTaskRdy
                0x080018f4       0xcc ..\obj\os_core.o
                0x080018f4                OS_EventTaskRdy
 .text.OS_EventTaskWait
                0x080019c0       0x48 ..\obj\os_core.o
                0x080019c0                OS_EventTaskWait
 .text.OS_EventTaskRemove
                0x08001a08       0x28 ..\obj\os_core.o
                0x08001a08                OS_EventTaskRemove
 .text.OS_EventTaskRemoveMulti
                0x08001a30       0x34 ..\obj\os_core.o
                0x08001a30                OS_EventTaskRemoveMulti
 .text.OS_EventWaitListInit
                0x08001a64       0x10 ..\obj\os_core.o
                0x08001a64                OS_EventWaitListInit
 .text.OS_MemClr
                0x08001a74       0x10 ..\obj\os_core.o
                0x08001a74                OS_MemClr
 .text.OS_Sched
                0x08001a84       0x88 ..\obj\os_core.o
                0x08001a84                OS_Sched
 .text.OS_TCBInit
                0x08001b0c      0x10c ..\obj\os_core.o
                0x08001b0c                OS_TCBInit
 .text.LED_init
                0x08001c18       0xa0 ..\obj\leds.o
                0x08001c18                LED_init
 .text.LED_put  0x08001cb8       0x64 ..\obj\leds.o
                0x08001cb8                LED_put
 .text.LedsTask
                0x08001d1c       0x34 ..\obj\outputs.o
                0x08001d1c                LedsTask
 .text.BuzzerTask
                0x08001d50       0x34 ..\obj\outputs.o
                0x08001d50                BuzzerTask
 .text.DisplayTask
                0x08001d84       0x3c ..\obj\outputs.o
                0x08001d84                DisplayTask
 .text.OS_MemInit
                0x08001dc0       0x48 ..\obj\os_mem.o
                0x08001dc0                OS_MemInit
 .text.GPIO_Init
                0x08001e08       0xa8 ..\obj\stm32f4xx_gpio.o
                0x08001e08                GPIO_Init
 .text.GPIO_SetBits
                0x08001eb0        0x4 ..\obj\stm32f4xx_gpio.o
                0x08001eb0                GPIO_SetBits
 .text.GPIO_ResetBits
                0x08001eb4        0x4 ..\obj\stm32f4xx_gpio.o
                0x08001eb4                GPIO_ResetBits
 .text.GPIO_PinAFConfig
                0x08001eb8       0x28 ..\obj\stm32f4xx_gpio.o
                0x08001eb8                GPIO_PinAFConfig
 .text.SystemInit
                0x08001ee0       0xf0 ..\obj\system_stm32f4xx.o
                0x08001ee0                SystemInit
 .text.OSQAccept
                0x08001fd0       0x4c ..\obj\os_q.o
                0x08001fd0                OSQAccept
 .text.OSQCreate
                0x0800201c       0x98 ..\obj\os_q.o
                0x0800201c                OSQCreate
 .text.OSQFlush
                0x080020b4       0x1c ..\obj\os_q.o
                0x080020b4                OSQFlush
 .text.OSQPost  0x080020d0       0x68 ..\obj\os_q.o
                0x080020d0                OSQPost
 .text.OSQQuery
                0x08002138       0x80 ..\obj\os_q.o
                0x08002138                OSQQuery
 .text.OS_QInit
                0x080021b8       0x30 ..\obj\os_q.o
                0x080021b8                OS_QInit
 .text.OSTaskDel.part.0
                0x080021e8      0x13c ..\obj\os_task.o
 .text.OSTaskCreate
                0x08002324       0x90 ..\obj\os_task.o
                0x08002324                OSTaskCreate
 .text.OSTaskCreateExt
                0x080023b4       0xbc ..\obj\os_task.o
                0x080023b4                OSTaskCreateExt
 .text.OSTaskDel
                0x08002470       0x1c ..\obj\os_task.o
                0x08002470                OSTaskDel
 .text.OSTaskNameSet
                0x0800248c       0x54 ..\obj\os_task.o
                0x0800248c                OSTaskNameSet
 .text.OSTaskStkChk
                0x080024e0       0x78 ..\obj\os_task.o
                0x080024e0                OSTaskStkChk
 .text.OS_TaskReturn
                0x08002558       0x24 ..\obj\os_task.o
                0x08002558                OS_TaskReturn
 .text.LCD_cursor_home
                0x0800257c       0xc0 ..\obj\lcd.o
                0x0800257c                LCD_cursor_home
 .text.LCD_clear
                0x0800263c       0xd8 ..\obj\lcd.o
                0x0800263c                LCD_clear
 .text.LCD_init
                0x08002714      0x578 ..\obj\lcd.o
                0x08002714                LCD_init
 .text.LCD_put  0x08002c8c      0x268 ..\obj\lcd.o
                0x08002c8c                LCD_put
 .text.LCD_puts
                0x08002ef4       0xe4 ..\obj\lcd.o
                0x08002ef4                LCD_puts
 .text.OSMboxCreate
                0x08002fd8       0x4c ..\obj\os_mbox.o
                0x08002fd8                OSMboxCreate
 .text.OSMboxPend
                0x08003024       0xd0 ..\obj\os_mbox.o
                0x08003024                OSMboxPend
 .text.OSMboxPost
                0x080030f4       0x4c ..\obj\os_mbox.o
                0x080030f4                OSMboxPost
 .text          0x08003140      0x370 d:/coocox/coide/workspace/bin/../lib/gcc/arm-none-eabi/6.3.1/thumb/v7e-m\libgcc.a(_arm_addsubdf3.o)
                0x08003140                __aeabi_drsub
                0x08003148                __aeabi_dsub
                0x08003148                __subdf3
                0x0800314c                __aeabi_dadd
                0x0800314c                __adddf3
                0x080033c4                __floatunsidf
                0x080033c4                __aeabi_ui2d
                0x080033e4                __floatsidf
                0x080033e4                __aeabi_i2d
                0x08003408                __aeabi_f2d
                0x08003408                __extendsfdf2
                0x08003444                __floatundidf
                0x08003444                __aeabi_ul2d
                0x08003454                __floatdidf
                0x08003454                __aeabi_l2d
 .text          0x080034b0      0x424 d:/coocox/coide/workspace/bin/../lib/gcc/arm-none-eabi/6.3.1/thumb/v7e-m\libgcc.a(_arm_muldivdf3.o)
                0x080034b0                __aeabi_dmul
                0x080034b0                __muldf3
                0x08003704                __divdf3
                0x08003704                __aeabi_ddiv
 .text          0x080038d4       0x40 d:/coocox/coide/workspace/bin/../lib/gcc/arm-none-eabi/6.3.1/thumb/v7e-m\libgcc.a(_arm_fixunsdfsi.o)
                0x080038d4                __aeabi_d2uiz
                0x080038d4                __fixunsdfsi
 .text.atoi     0x08003914        0x8 d:/coocox/coide/workspace/bin/../lib/gcc/arm-none-eabi/6.3.1/../../../../arm-none-eabi/lib/thumb/v7e-m\libg.a(lib_a-atoi.o)
                0x08003914                atoi
 .text.__locale_ctype_ptr_l
                0x0800391c        0x8 d:/coocox/coide/workspace/bin/../lib/gcc/arm-none-eabi/6.3.1/../../../../arm-none-eabi/lib/thumb/v7e-m\libg.a(lib_a-locale.o)
                0x0800391c                __locale_ctype_ptr_l
 .text.__locale_ctype_ptr
                0x08003924       0x1c d:/coocox/coide/workspace/bin/../lib/gcc/arm-none-eabi/6.3.1/../../../../arm-none-eabi/lib/thumb/v7e-m\libg.a(lib_a-locale.o)
                0x08003924                __locale_ctype_ptr
 .text.__ascii_mbtowc
                0x08003940       0x2c d:/coocox/coide/workspace/bin/../lib/gcc/arm-none-eabi/6.3.1/../../../../arm-none-eabi/lib/thumb/v7e-m\libg.a(lib_a-mbtowc_r.o)
                0x08003940                __ascii_mbtowc
 .text          0x0800396c      0x134 d:/coocox/coide/workspace/bin/../lib/gcc/arm-none-eabi/6.3.1/../../../../arm-none-eabi/lib/thumb/v7e-m\libg.a(lib_a-memcpy.o)
                0x0800396c                memcpy
 .text.memset   0x08003aa0       0x9c d:/coocox/coide/workspace/bin/../lib/gcc/arm-none-eabi/6.3.1/../../../../arm-none-eabi/lib/thumb/v7e-m\libg.a(lib_a-memset.o)
                0x08003aa0                memset
 .text.strcpy   0x08003b3c       0xbc d:/coocox/coide/workspace/bin/../lib/gcc/arm-none-eabi/6.3.1/../../../../arm-none-eabi/lib/thumb/v7e-m\libg.a(lib_a-strcpy.o)
                0x08003b3c                strcpy
 .text._strtol_l.isra.0
                0x08003bf8      0x128 d:/coocox/coide/workspace/bin/../lib/gcc/arm-none-eabi/6.3.1/../../../../arm-none-eabi/lib/thumb/v7e-m\libg.a(lib_a-strtol.o)
 .text.strtol   0x08003d20       0x2c d:/coocox/coide/workspace/bin/../lib/gcc/arm-none-eabi/6.3.1/../../../../arm-none-eabi/lib/thumb/v7e-m\libg.a(lib_a-strtol.o)
                0x08003d20                strtol
 .text.__ascii_wctomb
                0x08003d4c       0x1c d:/coocox/coide/workspace/bin/../lib/gcc/arm-none-eabi/6.3.1/../../../../arm-none-eabi/lib/thumb/v7e-m\libg.a(lib_a-wctomb_r.o)
                0x08003d4c                __ascii_wctomb
 *(.init)
 *(.fini)
 *crtbegin.o(.ctors)
 *crtbegin?.o(.ctors)
 *(EXCLUDE_FILE(*crtend.o *crtend?.o) .ctors)
 *(SORT(.ctors.*))
 *(.ctors)
 *crtbegin.o(.dtors)
 *crtbegin?.o(.dtors)
 *(EXCLUDE_FILE(*crtend.o *crtend?.o) .dtors)
 *(SORT(.dtors.*))
 *(.dtors)
 *(.rodata*)
 .rodata.str1.4
                0x08003d68        0x2 ..\obj\os_flag.o
 *fill*         0x08003d6a        0x2 
 .rodata.str1.4
                0x08003d6c       0x9f ..\obj\uarttask.o
 *fill*         0x08003e0b        0x1 
 .rodata        0x08003e0c       0x10 ..\obj\uart.o
 .rodata.str1.4
                0x08003e1c       0x31 ..\obj\taskcreate.o
                                 0x37 (size before relaxing)
 *fill*         0x08003e4d        0x3 
 .rodata.str1.4
                0x08003e50      0x4c6 ..\obj\main.o
                                0x4ca (size before relaxing)
 *fill*         0x08004316        0x2 
 .rodata        0x08004318      0x100 ..\obj\os_core.o
                0x08004318                OSUnMapTbl
 .rodata.str1.4
                0x08004418        0xe ..\obj\os_core.o
                                 0x12 (size before relaxing)
 .rodata.str1.4
                0x08004426        0x2 ..\obj\os_mem.o
 .rodata.str1.4
                0x08004426        0x2 ..\obj\os_q.o
 .rodata.str1.4
                0x08004426        0x2 ..\obj\os_task.o
 .rodata.str1.4
                0x08004426        0x2 ..\obj\os_mbox.o
 *fill*         0x08004426        0x2 
 .rodata._setlocale_r.str1.4
                0x08004428        0xa d:/coocox/coide/workspace/bin/../lib/gcc/arm-none-eabi/6.3.1/../../../../arm-none-eabi/lib/thumb/v7e-m\libg.a(lib_a-locale.o)
                                  0xd (size before relaxing)
 *fill*         0x08004432        0x2 
 .rodata.str1.4
                0x08004434        0x4 d:/coocox/coide/workspace/bin/../lib/gcc/arm-none-eabi/6.3.1/../../../../arm-none-eabi/lib/thumb/v7e-m\libg.a(lib_a-locale.o)
                                  0x2 (size before relaxing)
 .rodata._ctype_
                0x08004438      0x101 d:/coocox/coide/workspace/bin/../lib/gcc/arm-none-eabi/6.3.1/../../../../arm-none-eabi/lib/thumb/v7e-m\libg.a(lib_a-ctype_.o)
                0x08004438                _ctype_
 *(.eh_fram e*)

.glue_7         0x0800453c        0x0
 .glue_7        0x0800453c        0x0 linker stubs

.glue_7t        0x0800453c        0x0
 .glue_7t       0x0800453c        0x0 linker stubs

.vfp11_veneer   0x0800453c        0x0
 .vfp11_veneer  0x0800453c        0x0 linker stubs

.v4_bx          0x0800453c        0x0
 .v4_bx         0x0800453c        0x0 linker stubs

.iplt           0x0800453c        0x0
 .iplt          0x0800453c        0x0 ..\obj\delay.o

.rel.dyn        0x0800453c        0x0
 .rel.iplt      0x0800453c        0x0 ..\obj\delay.o

.ARM.extab
 *(.ARM.extab* .gnu.linkonce.armextab.*)
                0x0800453c                __exidx_start = .

.ARM.exidx
 *(.ARM.exidx* .gnu.linkonce.armexidx.*)
                0x0800453c                __exidx_end = .
                0x0800453c                __etext = .
                0x08004539                _sidata = __etext

.data           0x20000000      0x640 load address 0x08004539
                0x20000000                __data_start__ = .
                0x20000000                _sdata = __data_start__
 *(vtable)
 *(.data*)
 .data          0x20000000       0x78 ..\obj\taskcreate.o
                0x20000000                tasks
 .data          0x20000078        0x8 ..\obj\main.o
                0x20000078                functionality
                0x2000007c                version
 .data          0x20000080       0x10 ..\obj\stm32f4xx_rcc.o
 .data          0x20000090      0x430 ..\obj\printf.o
                0x20000090                _impure_ptr
                0x20000098                r
 .data          0x200004c0       0x14 ..\obj\system_stm32f4xx.o
                0x200004c0                AHBPrescTable
                0x200004d0                SystemCoreClock
 .data.__global_locale
                0x200004d4      0x16c d:/coocox/coide/workspace/bin/../lib/gcc/arm-none-eabi/6.3.1/../../../../arm-none-eabi/lib/thumb/v7e-m\libg.a(lib_a-locale.o)
                0x200004d4                __global_locale
                0x20000640                . = ALIGN (0x4)
                [!provide]                PROVIDE (__preinit_array_start, .)
 *(.preinit_array)
                [!provide]                PROVIDE (__preinit_array_end, .)
                0x20000640                . = ALIGN (0x4)
                [!provide]                PROVIDE (__init_array_start, .)
 *(SORT(.init_array.*))
 *(.init_array)
                [!provide]                PROVIDE (__init_array_end, .)
                0x20000640                . = ALIGN (0x4)
                [!provide]                PROVIDE (__fini_array_start, .)
 *(SORT(.fini_array.*))
 *(.fini_array)
                [!provide]                PROVIDE (__fini_array_end, .)
 *(.jcr*)
                0x20000640                . = ALIGN (0x4)
                0x20000640                __data_end__ = .
                0x20000640                _edata = __data_end__

.igot.plt       0x20000640        0x0 load address 0x08004b7c
 .igot.plt      0x20000640        0x0 ..\obj\delay.o

.bss            0x20000640     0x20d4 load address 0x08004b7c
                0x20000640                . = ALIGN (0x4)
                0x20000640                __bss_start__ = .
                0x20000640                _sbss = __bss_start__
 *(.bss*)
 .bss           0x20000640        0x4 ..\obj\uart.o
                0x20000640                charcounter
 .bss           0x20000644        0x1 ..\obj\lcd.o
                0x20000644                curpos
 *(COMMON)
 *fill*         0x20000645        0x3 
 COMMON         0x20000648       0x10 ..\obj\delay.o
                0x20000648                G_CLK
                0x2000064c                D_S
                0x20000650                D_uS
                0x20000654                D_mS
 COMMON         0x20000658      0x208 ..\obj\os_cpu_c.o
                0x20000658                OS_CPU_ExceptStkBase
                0x2000065c                OS_CPU_ExceptStk
                0x2000085c                SP_HighReady
 COMMON         0x20000860       0x64 ..\obj\uart.o
                0x20000860                string
 COMMON         0x200008c4      0x7d0 ..\obj\taskcreate.o
                0x200008c4                DistribTaskStk
                0x20000a54                DisplayTaskStk
                0x20000be4                LedsTaskStk
                0x20000d74                UartReadTaskStk
                0x20000f04                BuzzerTaskStk
 COMMON         0x20001094      0x350 ..\obj\main.o
                0x20001094                QHndl
                0x20001098                pqueue
                0x200010d4                dqueue
                0x2000123c                FlgHndl
                0x20001244                InitTaskStk
                0x200013d4                MbHndl
 COMMON         0x200013e4     0x1330 ..\obj\ucos_ii.o
                0x200013e4                OSLockNesting
                0x200013e5                OSTaskRegNextAvailID
                0x200013e6                OSRunning
                0x200013e8                OSIdleCtr
                0x200013ec                OSPrioHighRdy
                0x200013f0                OSFlagTbl
                0x20001440                OSPrioCur
                0x20001444                OSTCBList
                0x20001448                OSMemTbl
                0x200014c0                OSTickStepState
                0x200014c4                OSCtxSwCtr
                0x200014c8                OSTCBFreeList
                0x200014cc                OSTaskCtr
                0x200014d0                OSMemFreeList
                0x200014d4                OSQTbl
                0x20001534                OSTCBHighRdy
                0x20001538                OSQFreeList
                0x2000153c                OSRdyGrp
                0x20001540                OSRdyTbl
                0x20001548                OSEventFreeList
                0x2000154c                OSIntNesting
                0x20001550                OSTCBCur
                0x20001554                OSTime
                0x20001558                OSTaskIdleStk
                0x20001758                OSEventTbl
                0x20001ed8                OSTCBTbl
                0x20002610                OSFlagFreeList
                0x20002614                OSTCBPrioTbl
                0x20002714                . = ALIGN (0x4)
                0x20002714                __bss_end__ = .
                0x20002714                _ebss = __bss_end__

.heap           0x20002714        0x0
                0x20002714                __end__ = .
                0x20002714                _end = __end__
                0x20002714                end = __end__
 *(.heap*)
                0x20002714                __HeapLimit = .

.co_stack       0x20002714      0x804 load address 0x08006c50
                0x20002718                . = ALIGN (0x8)
 *fill*         0x20002714        0x4 
 *(.co_stack .co_stack.*)
 .co_stack      0x20002718      0x800 ..\obj\startup_stm32f4xx.o
                0x20002718                pulStack
                0x20020000                __StackTop = (ORIGIN (ram) + LENGTH (ram))
                0x2001f7fc                __StackLimit = (__StackTop - SIZEOF (.co_stack))
                [!provide]                PROVIDE (__stack, __StackTop)
                0x00000001                ASSERT ((__StackLimit >= __HeapLimit), region ram  overflowed with stack)
LOAD ..\obj\delay.o
LOAD ..\obj\os_time.o
LOAD ..\obj\os_cpu_a.o
LOAD ..\obj\keys.o
LOAD ..\obj\buzzer.o
LOAD ..\obj\os_cpu_c.o
LOAD ..\obj\stm32f4xx_usart.o
LOAD ..\obj\os_flag.o
LOAD ..\obj\uarttask.o
LOAD ..\obj\uart.o
LOAD ..\obj\startup_stm32f4xx.o
LOAD ..\obj\taskcreate.o
LOAD ..\obj\main.o
LOAD ..\obj\stm32f4xx_rcc.o
LOAD ..\obj\printf.o
LOAD ..\obj\os_sem.o
LOAD ..\obj\distrib.o
LOAD ..\obj\os_core.o
LOAD ..\obj\leds.o
LOAD ..\obj\outputs.o
LOAD ..\obj\os_mem.o
LOAD ..\obj\stm32f4xx_gpio.o
LOAD ..\obj\system_stm32f4xx.o
LOAD ..\obj\syscalls.o
LOAD ..\obj\os_q.o
LOAD ..\obj\os_task.o
LOAD ..\obj\lcd.o
LOAD ..\obj\misc.o
LOAD ..\obj\ucos_ii.o
LOAD ..\obj\os_mbox.o
START GROUP
LOAD d:/coocox/coide/workspace/bin/../lib/gcc/arm-none-eabi/6.3.1/thumb/v7e-m\libgcc.a
LOAD d:/coocox/coide/workspace/bin/../lib/gcc/arm-none-eabi/6.3.1/../../../../arm-none-eabi/lib/thumb/v7e-m\libg.a
LOAD d:/coocox/coide/workspace/bin/../lib/gcc/arm-none-eabi/6.3.1/../../../../arm-none-eabi/lib/thumb/v7e-m\libc.a
END GROUP
OUTPUT(output.elf elf32-littlearm)

.debug_info     0x00000000    0x234a5
 .debug_info    0x00000000     0x10d3 ..\obj\delay.o
 .debug_info    0x000010d3     0x121b ..\obj\os_time.o
 .debug_info    0x000022ee       0xce ..\obj\os_cpu_a.o
 .debug_info    0x000023bc     0x169a ..\obj\keys.o
 .debug_info    0x00003a56     0x13c0 ..\obj\buzzer.o
 .debug_info    0x00004e16     0x11f3 ..\obj\os_cpu_c.o
 .debug_info    0x00006009      0xb38 ..\obj\stm32f4xx_usart.o
 .debug_info    0x00006b41     0x1a55 ..\obj\os_flag.o
 .debug_info    0x00008596     0x1431 ..\obj\uarttask.o
 .debug_info    0x000099c7     0x1c8d ..\obj\uart.o
 .debug_info    0x0000b654     0x10b1 ..\obj\startup_stm32f4xx.o
 .debug_info    0x0000c705     0x13e7 ..\obj\taskcreate.o
 .debug_info    0x0000daec     0x1699 ..\obj\main.o
 .debug_info    0x0000f185      0xd0a ..\obj\stm32f4xx_rcc.o
 .debug_info    0x0000fe8f     0x2084 ..\obj\printf.o
 .debug_info    0x00011f13     0x1597 ..\obj\distrib.o
 .debug_info    0x000134aa     0x1f82 ..\obj\os_core.o
 .debug_info    0x0001542c     0x1413 ..\obj\leds.o
 .debug_info    0x0001683f     0x1267 ..\obj\outputs.o
 .debug_info    0x00017aa6     0x1358 ..\obj\os_mem.o
 .debug_info    0x00018dfe      0x7e4 ..\obj\stm32f4xx_gpio.o
 .debug_info    0x000195e2      0x5e9 ..\obj\system_stm32f4xx.o
 .debug_info    0x00019bcb     0x1803 ..\obj\os_q.o
 .debug_info    0x0001b3ce     0x1ce0 ..\obj\os_task.o
 .debug_info    0x0001d0ae     0x3e34 ..\obj\lcd.o
 .debug_info    0x00020ee2     0x1019 ..\obj\ucos_ii.o
 .debug_info    0x00021efb     0x15aa ..\obj\os_mbox.o

.debug_abbrev   0x00000000     0x4c99
 .debug_abbrev  0x00000000      0x264 ..\obj\delay.o
 .debug_abbrev  0x00000264      0x2fc ..\obj\os_time.o
 .debug_abbrev  0x00000560       0x14 ..\obj\os_cpu_a.o
 .debug_abbrev  0x00000574      0x2cf ..\obj\keys.o
 .debug_abbrev  0x00000843      0x2ec ..\obj\buzzer.o
 .debug_abbrev  0x00000b2f      0x366 ..\obj\os_cpu_c.o
 .debug_abbrev  0x00000e95      0x1e8 ..\obj\stm32f4xx_usart.o
 .debug_abbrev  0x0000107d      0x3a8 ..\obj\os_flag.o
 .debug_abbrev  0x00001425      0x334 ..\obj\uarttask.o
 .debug_abbrev  0x00001759      0x41a ..\obj\uart.o
 .debug_abbrev  0x00001b73      0x27c ..\obj\startup_stm32f4xx.o
 .debug_abbrev  0x00001def      0x2dc ..\obj\taskcreate.o
 .debug_abbrev  0x000020cb      0x354 ..\obj\main.o
 .debug_abbrev  0x0000241f      0x2a6 ..\obj\stm32f4xx_rcc.o
 .debug_abbrev  0x000026c5      0x3d6 ..\obj\printf.o
 .debug_abbrev  0x00002a9b      0x2ed ..\obj\distrib.o
 .debug_abbrev  0x00002d88      0x49d ..\obj\os_core.o
 .debug_abbrev  0x00003225      0x2c6 ..\obj\leds.o
 .debug_abbrev  0x000034eb      0x272 ..\obj\outputs.o
 .debug_abbrev  0x0000375d      0x2c5 ..\obj\os_mem.o
 .debug_abbrev  0x00003a22      0x204 ..\obj\stm32f4xx_gpio.o
 .debug_abbrev  0x00003c26      0x17b ..\obj\system_stm32f4xx.o
 .debug_abbrev  0x00003da1      0x2e1 ..\obj\os_q.o
 .debug_abbrev  0x00004082      0x3ad ..\obj\os_task.o
 .debug_abbrev  0x0000442f      0x3f9 ..\obj\lcd.o
 .debug_abbrev  0x00004828      0x1c6 ..\obj\ucos_ii.o
 .debug_abbrev  0x000049ee      0x2ab ..\obj\os_mbox.o

.debug_aranges  0x00000000      0xa60
 .debug_aranges
                0x00000000       0x38 ..\obj\delay.o
 .debug_aranges
                0x00000038       0x40 ..\obj\os_time.o
 .debug_aranges
                0x00000078       0x20 ..\obj\os_cpu_a.o
 .debug_aranges
                0x00000098       0x30 ..\obj\keys.o
 .debug_aranges
                0x000000c8       0x38 ..\obj\buzzer.o
 .debug_aranges
                0x00000100       0x50 ..\obj\os_cpu_c.o
 .debug_aranges
                0x00000150      0x100 ..\obj\stm32f4xx_usart.o
 .debug_aranges
                0x00000250       0x70 ..\obj\os_flag.o
 .debug_aranges
                0x000002c0       0x28 ..\obj\uarttask.o
 .debug_aranges
                0x000002e8       0x68 ..\obj\uart.o
 .debug_aranges
                0x00000350       0x28 ..\obj\startup_stm32f4xx.o
 .debug_aranges
                0x00000378       0x30 ..\obj\taskcreate.o
 .debug_aranges
                0x000003a8       0x38 ..\obj\main.o
 .debug_aranges
                0x000003e0      0x178 ..\obj\stm32f4xx_rcc.o
 .debug_aranges
                0x00000558       0xa0 ..\obj\printf.o
 .debug_aranges
                0x000005f8       0x30 ..\obj\distrib.o
 .debug_aranges
                0x00000628       0xe0 ..\obj\os_core.o
 .debug_aranges
                0x00000708       0x28 ..\obj\leds.o
 .debug_aranges
                0x00000730       0x30 ..\obj\outputs.o
 .debug_aranges
                0x00000760       0x50 ..\obj\os_mem.o
 .debug_aranges
                0x000007b0       0x88 ..\obj\stm32f4xx_gpio.o
 .debug_aranges
                0x00000838       0x28 ..\obj\system_stm32f4xx.o
 .debug_aranges
                0x00000860       0x70 ..\obj\os_q.o
 .debug_aranges
                0x000008d0       0xa0 ..\obj\os_task.o
 .debug_aranges
                0x00000970       0x80 ..\obj\lcd.o
 .debug_aranges
                0x000009f0       0x18 ..\obj\ucos_ii.o
 .debug_aranges
                0x00000a08       0x58 ..\obj\os_mbox.o

.debug_ranges   0x00000000     0x1508
 .debug_ranges  0x00000000       0x28 ..\obj\delay.o
 .debug_ranges  0x00000028       0x48 ..\obj\os_time.o
 .debug_ranges  0x00000070       0xa0 ..\obj\keys.o
 .debug_ranges  0x00000110       0x40 ..\obj\buzzer.o
 .debug_ranges  0x00000150       0x40 ..\obj\os_cpu_c.o
 .debug_ranges  0x00000190       0xf0 ..\obj\stm32f4xx_usart.o
 .debug_ranges  0x00000280      0x190 ..\obj\os_flag.o
 .debug_ranges  0x00000410       0x90 ..\obj\uarttask.o
 .debug_ranges  0x000004a0       0xb0 ..\obj\uart.o
 .debug_ranges  0x00000550       0x18 ..\obj\startup_stm32f4xx.o
 .debug_ranges  0x00000568       0x40 ..\obj\taskcreate.o
 .debug_ranges  0x000005a8       0x40 ..\obj\main.o
 .debug_ranges  0x000005e8      0x188 ..\obj\stm32f4xx_rcc.o
 .debug_ranges  0x00000770      0x5d8 ..\obj\printf.o
 .debug_ranges  0x00000d48       0x40 ..\obj\distrib.o
 .debug_ranges  0x00000d88      0x218 ..\obj\os_core.o
 .debug_ranges  0x00000fa0       0x30 ..\obj\leds.o
 .debug_ranges  0x00000fd0       0x20 ..\obj\outputs.o
 .debug_ranges  0x00000ff0       0x40 ..\obj\os_mem.o
 .debug_ranges  0x00001030       0x78 ..\obj\stm32f4xx_gpio.o
 .debug_ranges  0x000010a8       0x30 ..\obj\system_stm32f4xx.o
 .debug_ranges  0x000010d8       0x60 ..\obj\os_q.o
 .debug_ranges  0x00001138       0xc0 ..\obj\os_task.o
 .debug_ranges  0x000011f8      0x2c8 ..\obj\lcd.o
 .debug_ranges  0x000014c0       0x48 ..\obj\os_mbox.o

.debug_line     0x00000000     0x782a
 .debug_line    0x00000000      0x3b6 ..\obj\delay.o
 .debug_line    0x000003b6      0x374 ..\obj\os_time.o
 .debug_line    0x0000072a       0xb1 ..\obj\os_cpu_a.o
 .debug_line    0x000007db      0x418 ..\obj\keys.o
 .debug_line    0x00000bf3      0x3ee ..\obj\buzzer.o
 .debug_line    0x00000fe1      0x375 ..\obj\os_cpu_c.o
 .debug_line    0x00001356      0x52b ..\obj\stm32f4xx_usart.o
 .debug_line    0x00001881      0x684 ..\obj\os_flag.o
 .debug_line    0x00001f05      0x3c1 ..\obj\uarttask.o
 .debug_line    0x000022c6      0x5a1 ..\obj\uart.o
 .debug_line    0x00002867      0x389 ..\obj\startup_stm32f4xx.o
 .debug_line    0x00002bf0      0x3bd ..\obj\taskcreate.o
 .debug_line    0x00002fad      0x474 ..\obj\main.o
 .debug_line    0x00003421      0x5c6 ..\obj\stm32f4xx_rcc.o
 .debug_line    0x000039e7      0x665 ..\obj\printf.o
 .debug_line    0x0000404c      0x3cd ..\obj\distrib.o
 .debug_line    0x00004419      0x860 ..\obj\os_core.o
 .debug_line    0x00004c79      0x3cf ..\obj\leds.o
 .debug_line    0x00005048      0x3a6 ..\obj\outputs.o
 .debug_line    0x000053ee      0x3bf ..\obj\os_mem.o
 .debug_line    0x000057ad      0x3b0 ..\obj\stm32f4xx_gpio.o
 .debug_line    0x00005b5d      0x1e2 ..\obj\system_stm32f4xx.o
 .debug_line    0x00005d3f      0x518 ..\obj\os_q.o
 .debug_line    0x00006257      0x626 ..\obj\os_task.o
 .debug_line    0x0000687d      0x8b1 ..\obj\lcd.o
 .debug_line    0x0000712e      0x2ac ..\obj\ucos_ii.o
 .debug_line    0x000073da      0x450 ..\obj\os_mbox.o

.debug_str      0x00000000     0x3463
 .debug_str     0x00000000      0xafa ..\obj\delay.o
                                0xb88 (size before relaxing)
 .debug_str     0x00000afa       0xf3 ..\obj\os_time.o
                                0xb9b (size before relaxing)
 .debug_str     0x00000bed      0x271 ..\obj\keys.o
                                0xd25 (size before relaxing)
 .debug_str     0x00000e5e       0x81 ..\obj\buzzer.o
                                0xd28 (size before relaxing)
 .debug_str     0x00000edf      0x17d ..\obj\os_cpu_c.o
                                0xc68 (size before relaxing)
 .debug_str     0x0000105c      0x4df ..\obj\stm32f4xx_usart.o
                                0x6e9 (size before relaxing)
 .debug_str     0x0000153b      0x1b5 ..\obj\os_flag.o
                                0xcaa (size before relaxing)
 .debug_str     0x000016f0      0x173 ..\obj\uarttask.o
                                0xc41 (size before relaxing)
 .debug_str     0x00001863      0x6d6 ..\obj\uart.o
                               0x14e7 (size before relaxing)
 .debug_str     0x00001f39       0xd8 ..\obj\startup_stm32f4xx.o
                                0xb8f (size before relaxing)
 .debug_str     0x00002011      0x18a ..\obj\taskcreate.o
                                0xcbf (size before relaxing)
 .debug_str     0x0000219b       0xe5 ..\obj\main.o
                                0xd2a (size before relaxing)
 .debug_str     0x00002280      0x57f ..\obj\stm32f4xx_rcc.o
                                0x86a (size before relaxing)
 .debug_str     0x000027ff       0xe8 ..\obj\printf.o
                                0x6bb (size before relaxing)
 .debug_str     0x000028e7       0xa1 ..\obj\distrib.o
                                0xc44 (size before relaxing)
 .debug_str     0x00002988      0x2b4 ..\obj\os_core.o
                                0xed8 (size before relaxing)
 .debug_str     0x00002c3c       0x50 ..\obj\leds.o
                                0xce6 (size before relaxing)
 .debug_str     0x00002c8c       0x8f ..\obj\outputs.o
                                0xc05 (size before relaxing)
 .debug_str     0x00002d1b      0x115 ..\obj\os_mem.o
                                0xc1c (size before relaxing)
 .debug_str     0x00002e30      0x14e ..\obj\stm32f4xx_gpio.o
                                0x4d4 (size before relaxing)
 .debug_str     0x00002f7e      0x107 ..\obj\system_stm32f4xx.o
                                0x3b4 (size before relaxing)
 .debug_str     0x00003085       0xb3 ..\obj\os_q.o
                                0xc7c (size before relaxing)
 .debug_str     0x00003138      0x14e ..\obj\os_task.o
                                0xd99 (size before relaxing)
 .debug_str     0x00003286       0xc0 ..\obj\lcd.o
                                0xdd4 (size before relaxing)
 .debug_str     0x00003346       0x5b ..\obj\ucos_ii.o
                                0xafe (size before relaxing)
 .debug_str     0x000033a1       0xc2 ..\obj\os_mbox.o
                                0xc5c (size before relaxing)

.comment        0x00000000       0x7f
 .comment       0x00000000       0x7f ..\obj\delay.o
                                 0x80 (size before relaxing)
 .comment       0x0000007f       0x80 ..\obj\os_time.o
 .comment       0x0000007f       0x80 ..\obj\keys.o
 .comment       0x0000007f       0x80 ..\obj\buzzer.o
 .comment       0x0000007f       0x80 ..\obj\os_cpu_c.o
 .comment       0x0000007f       0x80 ..\obj\stm32f4xx_usart.o
 .comment       0x0000007f       0x80 ..\obj\os_flag.o
 .comment       0x0000007f       0x80 ..\obj\uarttask.o
 .comment       0x0000007f       0x80 ..\obj\uart.o
 .comment       0x0000007f       0x80 ..\obj\startup_stm32f4xx.o
 .comment       0x0000007f       0x80 ..\obj\taskcreate.o
 .comment       0x0000007f       0x80 ..\obj\main.o
 .comment       0x0000007f       0x80 ..\obj\stm32f4xx_rcc.o
 .comment       0x0000007f       0x80 ..\obj\printf.o
 .comment       0x0000007f       0x80 ..\obj\distrib.o
 .comment       0x0000007f       0x80 ..\obj\os_core.o
 .comment       0x0000007f       0x80 ..\obj\leds.o
 .comment       0x0000007f       0x80 ..\obj\outputs.o
 .comment       0x0000007f       0x80 ..\obj\os_mem.o
 .comment       0x0000007f       0x80 ..\obj\stm32f4xx_gpio.o
 .comment       0x0000007f       0x80 ..\obj\system_stm32f4xx.o
 .comment       0x0000007f       0x80 ..\obj\os_q.o
 .comment       0x0000007f       0x80 ..\obj\os_task.o
 .comment       0x0000007f       0x80 ..\obj\lcd.o
 .comment       0x0000007f       0x80 ..\obj\ucos_ii.o
 .comment       0x0000007f       0x80 ..\obj\os_mbox.o

.ARM.attributes
                0x00000000       0x31
 .ARM.attributes
                0x00000000       0x33 ..\obj\delay.o
 .ARM.attributes
                0x00000033       0x33 ..\obj\os_time.o
 .ARM.attributes
                0x00000066       0x21 ..\obj\os_cpu_a.o
 .ARM.attributes
                0x00000087       0x33 ..\obj\keys.o
 .ARM.attributes
                0x000000ba       0x33 ..\obj\buzzer.o
 .ARM.attributes
                0x000000ed       0x33 ..\obj\os_cpu_c.o
 .ARM.attributes
                0x00000120       0x33 ..\obj\stm32f4xx_usart.o
 .ARM.attributes
                0x00000153       0x33 ..\obj\os_flag.o
 .ARM.attributes
                0x00000186       0x33 ..\obj\uarttask.o
 .ARM.attributes
                0x000001b9       0x33 ..\obj\uart.o
 .ARM.attributes
                0x000001ec       0x33 ..\obj\startup_stm32f4xx.o
 .ARM.attributes
                0x0000021f       0x33 ..\obj\taskcreate.o
 .ARM.attributes
                0x00000252       0x33 ..\obj\main.o
 .ARM.attributes
                0x00000285       0x33 ..\obj\stm32f4xx_rcc.o
 .ARM.attributes
                0x000002b8       0x33 ..\obj\printf.o
 .ARM.attributes
                0x000002eb       0x33 ..\obj\distrib.o
 .ARM.attributes
                0x0000031e       0x33 ..\obj\os_core.o
 .ARM.attributes
                0x00000351       0x33 ..\obj\leds.o
 .ARM.attributes
                0x00000384       0x33 ..\obj\outputs.o
 .ARM.attributes
                0x000003b7       0x33 ..\obj\os_mem.o
 .ARM.attributes
                0x000003ea       0x33 ..\obj\stm32f4xx_gpio.o
 .ARM.attributes
                0x0000041d       0x33 ..\obj\system_stm32f4xx.o
 .ARM.attributes
                0x00000450       0x33 ..\obj\os_q.o
 .ARM.attributes
                0x00000483       0x33 ..\obj\os_task.o
 .ARM.attributes
                0x000004b6       0x33 ..\obj\lcd.o
 .ARM.attributes
                0x000004e9       0x33 ..\obj\ucos_ii.o
 .ARM.attributes
                0x0000051c       0x33 ..\obj\os_mbox.o
 .ARM.attributes
                0x0000054f       0x1e d:/coocox/coide/workspace/bin/../lib/gcc/arm-none-eabi/6.3.1/thumb/v7e-m\libgcc.a(_arm_addsubdf3.o)
 .ARM.attributes
                0x0000056d       0x1e d:/coocox/coide/workspace/bin/../lib/gcc/arm-none-eabi/6.3.1/thumb/v7e-m\libgcc.a(_arm_muldivdf3.o)
 .ARM.attributes
                0x0000058b       0x1e d:/coocox/coide/workspace/bin/../lib/gcc/arm-none-eabi/6.3.1/thumb/v7e-m\libgcc.a(_arm_fixunsdfsi.o)
 .ARM.attributes
                0x000005a9       0x2e d:/coocox/coide/workspace/bin/../lib/gcc/arm-none-eabi/6.3.1/../../../../arm-none-eabi/lib/thumb/v7e-m\libg.a(lib_a-atoi.o)
 .ARM.attributes
                0x000005d7       0x2e d:/coocox/coide/workspace/bin/../lib/gcc/arm-none-eabi/6.3.1/../../../../arm-none-eabi/lib/thumb/v7e-m\libg.a(lib_a-locale.o)
 .ARM.attributes
                0x00000605       0x2e d:/coocox/coide/workspace/bin/../lib/gcc/arm-none-eabi/6.3.1/../../../../arm-none-eabi/lib/thumb/v7e-m\libg.a(lib_a-mbtowc_r.o)
 .ARM.attributes
                0x00000633       0x1c d:/coocox/coide/workspace/bin/../lib/gcc/arm-none-eabi/6.3.1/../../../../arm-none-eabi/lib/thumb/v7e-m\libg.a(lib_a-memcpy.o)
 .ARM.attributes
                0x0000064f       0x2e d:/coocox/coide/workspace/bin/../lib/gcc/arm-none-eabi/6.3.1/../../../../arm-none-eabi/lib/thumb/v7e-m\libg.a(lib_a-memset.o)
 .ARM.attributes
                0x0000067d       0x2e d:/coocox/coide/workspace/bin/../lib/gcc/arm-none-eabi/6.3.1/../../../../arm-none-eabi/lib/thumb/v7e-m\libg.a(lib_a-strcpy.o)
 .ARM.attributes
                0x000006ab       0x2e d:/coocox/coide/workspace/bin/../lib/gcc/arm-none-eabi/6.3.1/../../../../arm-none-eabi/lib/thumb/v7e-m\libg.a(lib_a-strtol.o)
 .ARM.attributes
                0x000006d9       0x2e d:/coocox/coide/workspace/bin/../lib/gcc/arm-none-eabi/6.3.1/../../../../arm-none-eabi/lib/thumb/v7e-m\libg.a(lib_a-wctomb_r.o)
 .ARM.attributes
                0x00000707       0x2e d:/coocox/coide/workspace/bin/../lib/gcc/arm-none-eabi/6.3.1/../../../../arm-none-eabi/lib/thumb/v7e-m\libg.a(lib_a-ctype_.o)

.debug_frame    0x00000000     0x2070
 .debug_frame   0x00000000       0x7c ..\obj\delay.o
 .debug_frame   0x0000007c       0xa8 ..\obj\os_time.o
 .debug_frame   0x00000124       0x68 ..\obj\keys.o
 .debug_frame   0x0000018c       0x98 ..\obj\buzzer.o
 .debug_frame   0x00000224      0x110 ..\obj\os_cpu_c.o
 .debug_frame   0x00000334      0x264 ..\obj\stm32f4xx_usart.o
 .debug_frame   0x00000598      0x18c ..\obj\os_flag.o
 .debug_frame   0x00000724       0x60 ..\obj\uarttask.o
 .debug_frame   0x00000784      0x174 ..\obj\uart.o
 .debug_frame   0x000008f8       0x44 ..\obj\startup_stm32f4xx.o
 .debug_frame   0x0000093c       0x88 ..\obj\taskcreate.o
 .debug_frame   0x000009c4       0x90 ..\obj\main.o
 .debug_frame   0x00000a54      0x2f0 ..\obj\stm32f4xx_rcc.o
 .debug_frame   0x00000d44      0x2c0 ..\obj\printf.o
 .debug_frame   0x00001004       0x7c ..\obj\distrib.o
 .debug_frame   0x00001080      0x318 ..\obj\os_core.o
 .debug_frame   0x00001398       0x5c ..\obj\leds.o
 .debug_frame   0x000013f4       0x70 ..\obj\outputs.o
 .debug_frame   0x00001464       0xec ..\obj\os_mem.o
 .debug_frame   0x00001550      0x164 ..\obj\stm32f4xx_gpio.o
 .debug_frame   0x000016b4       0x3c ..\obj\system_stm32f4xx.o
 .debug_frame   0x000016f0      0x160 ..\obj\os_q.o
 .debug_frame   0x00001850      0x228 ..\obj\os_task.o
 .debug_frame   0x00001a78      0x1c0 ..\obj\lcd.o
 .debug_frame   0x00001c38      0x108 ..\obj\os_mbox.o
 .debug_frame   0x00001d40       0xac d:/coocox/coide/workspace/bin/../lib/gcc/arm-none-eabi/6.3.1/thumb/v7e-m\libgcc.a(_arm_addsubdf3.o)
 .debug_frame   0x00001dec       0x50 d:/coocox/coide/workspace/bin/../lib/gcc/arm-none-eabi/6.3.1/thumb/v7e-m\libgcc.a(_arm_muldivdf3.o)
 .debug_frame   0x00001e3c       0x24 d:/coocox/coide/workspace/bin/../lib/gcc/arm-none-eabi/6.3.1/thumb/v7e-m\libgcc.a(_arm_fixunsdfsi.o)
 .debug_frame   0x00001e60       0x30 d:/coocox/coide/workspace/bin/../lib/gcc/arm-none-eabi/6.3.1/../../../../arm-none-eabi/lib/thumb/v7e-m\libg.a(lib_a-atoi.o)
 .debug_frame   0x00001e90       0x6c d:/coocox/coide/workspace/bin/../lib/gcc/arm-none-eabi/6.3.1/../../../../arm-none-eabi/lib/thumb/v7e-m\libg.a(lib_a-locale.o)
 .debug_frame   0x00001efc       0x4c d:/coocox/coide/workspace/bin/../lib/gcc/arm-none-eabi/6.3.1/../../../../arm-none-eabi/lib/thumb/v7e-m\libg.a(lib_a-mbtowc_r.o)
 .debug_frame   0x00001f48       0x34 d:/coocox/coide/workspace/bin/../lib/gcc/arm-none-eabi/6.3.1/../../../../arm-none-eabi/lib/thumb/v7e-m\libg.a(lib_a-memset.o)
 .debug_frame   0x00001f7c       0x20 d:/coocox/coide/workspace/bin/../lib/gcc/arm-none-eabi/6.3.1/../../../../arm-none-eabi/lib/thumb/v7e-m\libg.a(lib_a-strcpy.o)
 .debug_frame   0x00001f9c       0x98 d:/coocox/coide/workspace/bin/../lib/gcc/arm-none-eabi/6.3.1/../../../../arm-none-eabi/lib/thumb/v7e-m\libg.a(lib_a-strtol.o)
 .debug_frame   0x00002034       0x3c d:/coocox/coide/workspace/bin/../lib/gcc/arm-none-eabi/6.3.1/../../../../arm-none-eabi/lib/thumb/v7e-m\libg.a(lib_a-wctomb_r.o)

.debug_loc      0x00000000     0xc464
 .debug_loc     0x00000000      0x2e8 ..\obj\os_time.o
 .debug_loc     0x000002e8      0x215 ..\obj\keys.o
 .debug_loc     0x000004fd       0xf6 ..\obj\buzzer.o
 .debug_loc     0x000005f3      0x15a ..\obj\os_cpu_c.o
 .debug_loc     0x0000074d      0x7fd ..\obj\stm32f4xx_usart.o
 .debug_loc     0x00000f4a     0x14c8 ..\obj\os_flag.o
 .debug_loc     0x00002412      0x1b1 ..\obj\uarttask.o
 .debug_loc     0x000025c3      0xfb8 ..\obj\uart.o
 .debug_loc     0x0000357b       0xda ..\obj\taskcreate.o
 .debug_loc     0x00003655       0x21 ..\obj\main.o
 .debug_loc     0x00003676      0xaba ..\obj\stm32f4xx_rcc.o
 .debug_loc     0x00004130     0x2f86 ..\obj\printf.o
 .debug_loc     0x000070b6       0xd4 ..\obj\distrib.o
 .debug_loc     0x0000718a     0x1325 ..\obj\os_core.o
 .debug_loc     0x000084af       0x6a ..\obj\leds.o
 .debug_loc     0x00008519       0xbd ..\obj\outputs.o
 .debug_loc     0x000085d6      0x48d ..\obj\os_mem.o
 .debug_loc     0x00008a63      0x36b ..\obj\stm32f4xx_gpio.o
 .debug_loc     0x00008dce      0x13b ..\obj\system_stm32f4xx.o
 .debug_loc     0x00008f09      0xc8c ..\obj\os_q.o
 .debug_loc     0x00009b95     0x10fb ..\obj\os_task.o
 .debug_loc     0x0000ac90      0xecf ..\obj\lcd.o
 .debug_loc     0x0000bb5f      0x905 ..\obj\os_mbox.o
